
so_long:     file format elf64-x86-64


Disassembly of section .init:

0000000000402000 <_init>:
  402000:	f3 0f 1e fa          	endbr64 
  402004:	48 83 ec 08          	sub    $0x8,%rsp
  402008:	48 8b 05 e1 3f 01 00 	mov    0x13fe1(%rip),%rax        # 415ff0 <__gmon_start__@Base>
  40200f:	48 85 c0             	test   %rax,%rax
  402012:	74 02                	je     402016 <_init+0x16>
  402014:	ff d0                	call   *%rax
  402016:	48 83 c4 08          	add    $0x8,%rsp
  40201a:	c3                   	ret    

Disassembly of section .plt:

0000000000402020 <XFreeCursor@plt-0x10>:
  402020:	ff 35 e2 3f 01 00    	push   0x13fe2(%rip)        # 416008 <_GLOBAL_OFFSET_TABLE_+0x8>
  402026:	ff 25 e4 3f 01 00    	jmp    *0x13fe4(%rip)        # 416010 <_GLOBAL_OFFSET_TABLE_+0x10>
  40202c:	0f 1f 40 00          	nopl   0x0(%rax)

0000000000402030 <XFreeCursor@plt>:
  402030:	ff 25 e2 3f 01 00    	jmp    *0x13fe2(%rip)        # 416018 <XFreeCursor@Base>
  402036:	68 00 00 00 00       	push   $0x0
  40203b:	e9 e0 ff ff ff       	jmp    402020 <_init+0x20>

0000000000402040 <memset@plt>:
  402040:	ff 25 da 3f 01 00    	jmp    *0x13fda(%rip)        # 416020 <memset@GLIBC_2.2.5>
  402046:	68 01 00 00 00       	push   $0x1
  40204b:	e9 d0 ff ff ff       	jmp    402020 <_init+0x20>

0000000000402050 <close@plt>:
  402050:	ff 25 d2 3f 01 00    	jmp    *0x13fd2(%rip)        # 416028 <close@GLIBC_2.2.5>
  402056:	68 02 00 00 00       	push   $0x2
  40205b:	e9 c0 ff ff ff       	jmp    402020 <_init+0x20>

0000000000402060 <shmdt@plt>:
  402060:	ff 25 ca 3f 01 00    	jmp    *0x13fca(%rip)        # 416030 <shmdt@GLIBC_2.2.5>
  402066:	68 03 00 00 00       	push   $0x3
  40206b:	e9 b0 ff ff ff       	jmp    402020 <_init+0x20>

0000000000402070 <XStoreName@plt>:
  402070:	ff 25 c2 3f 01 00    	jmp    *0x13fc2(%rip)        # 416038 <XStoreName@Base>
  402076:	68 04 00 00 00       	push   $0x4
  40207b:	e9 a0 ff ff ff       	jmp    402020 <_init+0x20>

0000000000402080 <XGetWMNormalHints@plt>:
  402080:	ff 25 ba 3f 01 00    	jmp    *0x13fba(%rip)        # 416040 <XGetWMNormalHints@Base>
  402086:	68 05 00 00 00       	push   $0x5
  40208b:	e9 90 ff ff ff       	jmp    402020 <_init+0x20>

0000000000402090 <puts@plt>:
  402090:	ff 25 b2 3f 01 00    	jmp    *0x13fb2(%rip)        # 416048 <puts@GLIBC_2.2.5>
  402096:	68 06 00 00 00       	push   $0x6
  40209b:	e9 80 ff ff ff       	jmp    402020 <_init+0x20>

00000000004020a0 <XAutoRepeatOff@plt>:
  4020a0:	ff 25 aa 3f 01 00    	jmp    *0x13faa(%rip)        # 416050 <XAutoRepeatOff@Base>
  4020a6:	68 07 00 00 00       	push   $0x7
  4020ab:	e9 70 ff ff ff       	jmp    402020 <_init+0x20>

00000000004020b0 <exit@plt>:
  4020b0:	ff 25 a2 3f 01 00    	jmp    *0x13fa2(%rip)        # 416058 <exit@GLIBC_2.2.5>
  4020b6:	68 08 00 00 00       	push   $0x8
  4020bb:	e9 60 ff ff ff       	jmp    402020 <_init+0x20>

00000000004020c0 <XCreateImage@plt>:
  4020c0:	ff 25 9a 3f 01 00    	jmp    *0x13f9a(%rip)        # 416060 <XCreateImage@Base>
  4020c6:	68 09 00 00 00       	push   $0x9
  4020cb:	e9 50 ff ff ff       	jmp    402020 <_init+0x20>

00000000004020d0 <strcasecmp@plt>:
  4020d0:	ff 25 92 3f 01 00    	jmp    *0x13f92(%rip)        # 416068 <strcasecmp@GLIBC_2.2.5>
  4020d6:	68 0a 00 00 00       	push   $0xa
  4020db:	e9 40 ff ff ff       	jmp    402020 <_init+0x20>

00000000004020e0 <XShmCreatePixmap@plt>:
  4020e0:	ff 25 8a 3f 01 00    	jmp    *0x13f8a(%rip)        # 416070 <XShmCreatePixmap@Base>
  4020e6:	68 0b 00 00 00       	push   $0xb
  4020eb:	e9 30 ff ff ff       	jmp    402020 <_init+0x20>

00000000004020f0 <read@plt>:
  4020f0:	ff 25 82 3f 01 00    	jmp    *0x13f82(%rip)        # 416078 <read@GLIBC_2.2.5>
  4020f6:	68 0c 00 00 00       	push   $0xc
  4020fb:	e9 20 ff ff ff       	jmp    402020 <_init+0x20>

0000000000402100 <strncmp@plt>:
  402100:	ff 25 7a 3f 01 00    	jmp    *0x13f7a(%rip)        # 416080 <strncmp@GLIBC_2.2.5>
  402106:	68 0d 00 00 00       	push   $0xd
  40210b:	e9 10 ff ff ff       	jmp    402020 <_init+0x20>

0000000000402110 <malloc@plt>:
  402110:	ff 25 72 3f 01 00    	jmp    *0x13f72(%rip)        # 416088 <malloc@GLIBC_2.2.5>
  402116:	68 0e 00 00 00       	push   $0xe
  40211b:	e9 00 ff ff ff       	jmp    402020 <_init+0x20>

0000000000402120 <XSetWMNormalHints@plt>:
  402120:	ff 25 6a 3f 01 00    	jmp    *0x13f6a(%rip)        # 416090 <XSetWMNormalHints@Base>
  402126:	68 0f 00 00 00       	push   $0xf
  40212b:	e9 f0 fe ff ff       	jmp    402020 <_init+0x20>

0000000000402130 <XCreateWindow@plt>:
  402130:	ff 25 62 3f 01 00    	jmp    *0x13f62(%rip)        # 416098 <XCreateWindow@Base>
  402136:	68 10 00 00 00       	push   $0x10
  40213b:	e9 e0 fe ff ff       	jmp    402020 <_init+0x20>

0000000000402140 <XkbKeycodeToKeysym@plt>:
  402140:	ff 25 5a 3f 01 00    	jmp    *0x13f5a(%rip)        # 4160a0 <XkbKeycodeToKeysym@Base>
  402146:	68 11 00 00 00       	push   $0x11
  40214b:	e9 d0 fe ff ff       	jmp    402020 <_init+0x20>

0000000000402150 <XCreateColormap@plt>:
  402150:	ff 25 52 3f 01 00    	jmp    *0x13f52(%rip)        # 4160a8 <XCreateColormap@Base>
  402156:	68 12 00 00 00       	push   $0x12
  40215b:	e9 c0 fe ff ff       	jmp    402020 <_init+0x20>

0000000000402160 <XAutoRepeatOn@plt>:
  402160:	ff 25 4a 3f 01 00    	jmp    *0x13f4a(%rip)        # 4160b0 <XAutoRepeatOn@Base>
  402166:	68 13 00 00 00       	push   $0x13
  40216b:	e9 b0 fe ff ff       	jmp    402020 <_init+0x20>

0000000000402170 <XOpenDisplay@plt>:
  402170:	ff 25 42 3f 01 00    	jmp    *0x13f42(%rip)        # 4160b8 <XOpenDisplay@Base>
  402176:	68 14 00 00 00       	push   $0x14
  40217b:	e9 a0 fe ff ff       	jmp    402020 <_init+0x20>

0000000000402180 <free@plt>:
  402180:	ff 25 3a 3f 01 00    	jmp    *0x13f3a(%rip)        # 4160c0 <free@GLIBC_2.2.5>
  402186:	68 15 00 00 00       	push   $0x15
  40218b:	e9 90 fe ff ff       	jmp    402020 <_init+0x20>

0000000000402190 <XCopyArea@plt>:
  402190:	ff 25 32 3f 01 00    	jmp    *0x13f32(%rip)        # 4160c8 <XCopyArea@Base>
  402196:	68 16 00 00 00       	push   $0x16
  40219b:	e9 80 fe ff ff       	jmp    402020 <_init+0x20>

00000000004021a0 <strlen@plt>:
  4021a0:	ff 25 2a 3f 01 00    	jmp    *0x13f2a(%rip)        # 4160d0 <strlen@GLIBC_2.2.5>
  4021a6:	68 17 00 00 00       	push   $0x17
  4021ab:	e9 70 fe ff ff       	jmp    402020 <_init+0x20>

00000000004021b0 <XDestroyWindow@plt>:
  4021b0:	ff 25 22 3f 01 00    	jmp    *0x13f22(%rip)        # 4160d8 <XDestroyWindow@Base>
  4021b6:	68 18 00 00 00       	push   $0x18
  4021bb:	e9 60 fe ff ff       	jmp    402020 <_init+0x20>

00000000004021c0 <XCloseDisplay@plt>:
  4021c0:	ff 25 1a 3f 01 00    	jmp    *0x13f1a(%rip)        # 4160e0 <XCloseDisplay@Base>
  4021c6:	68 19 00 00 00       	push   $0x19
  4021cb:	e9 50 fe ff ff       	jmp    402020 <_init+0x20>

00000000004021d0 <XShmCreateImage@plt>:
  4021d0:	ff 25 12 3f 01 00    	jmp    *0x13f12(%rip)        # 4160e8 <XShmCreateImage@Base>
  4021d6:	68 1a 00 00 00       	push   $0x1a
  4021db:	e9 40 fe ff ff       	jmp    402020 <_init+0x20>

00000000004021e0 <XCreatePixmapCursor@plt>:
  4021e0:	ff 25 0a 3f 01 00    	jmp    *0x13f0a(%rip)        # 4160f0 <XCreatePixmapCursor@Base>
  4021e6:	68 1b 00 00 00       	push   $0x1b
  4021eb:	e9 30 fe ff ff       	jmp    402020 <_init+0x20>

00000000004021f0 <XFreeGC@plt>:
  4021f0:	ff 25 02 3f 01 00    	jmp    *0x13f02(%rip)        # 4160f8 <XFreeGC@Base>
  4021f6:	68 1c 00 00 00       	push   $0x1c
  4021fb:	e9 20 fe ff ff       	jmp    402020 <_init+0x20>

0000000000402200 <XShmQueryVersion@plt>:
  402200:	ff 25 fa 3e 01 00    	jmp    *0x13efa(%rip)        # 416100 <XShmQueryVersion@Base>
  402206:	68 1d 00 00 00       	push   $0x1d
  40220b:	e9 10 fe ff ff       	jmp    402020 <_init+0x20>

0000000000402210 <XNextEvent@plt>:
  402210:	ff 25 f2 3e 01 00    	jmp    *0x13ef2(%rip)        # 416108 <XNextEvent@Base>
  402216:	68 1e 00 00 00       	push   $0x1e
  40221b:	e9 00 fe ff ff       	jmp    402020 <_init+0x20>

0000000000402220 <XWindowEvent@plt>:
  402220:	ff 25 ea 3e 01 00    	jmp    *0x13eea(%rip)        # 416110 <XWindowEvent@Base>
  402226:	68 1f 00 00 00       	push   $0x1f
  40222b:	e9 f0 fd ff ff       	jmp    402020 <_init+0x20>

0000000000402230 <XSetWMProtocols@plt>:
  402230:	ff 25 e2 3e 01 00    	jmp    *0x13ee2(%rip)        # 416118 <XSetWMProtocols@Base>
  402236:	68 20 00 00 00       	push   $0x20
  40223b:	e9 e0 fd ff ff       	jmp    402020 <_init+0x20>

0000000000402240 <lseek@plt>:
  402240:	ff 25 da 3e 01 00    	jmp    *0x13eda(%rip)        # 416120 <lseek@GLIBC_2.2.5>
  402246:	68 21 00 00 00       	push   $0x21
  40224b:	e9 d0 fd ff ff       	jmp    402020 <_init+0x20>

0000000000402250 <strtol@plt>:
  402250:	ff 25 d2 3e 01 00    	jmp    *0x13ed2(%rip)        # 416128 <strtol@GLIBC_2.2.5>
  402256:	68 22 00 00 00       	push   $0x22
  40225b:	e9 c0 fd ff ff       	jmp    402020 <_init+0x20>

0000000000402260 <gethostname@plt>:
  402260:	ff 25 ca 3e 01 00    	jmp    *0x13eca(%rip)        # 416130 <gethostname@GLIBC_2.2.5>
  402266:	68 23 00 00 00       	push   $0x23
  40226b:	e9 b0 fd ff ff       	jmp    402020 <_init+0x20>

0000000000402270 <XPutBackEvent@plt>:
  402270:	ff 25 c2 3e 01 00    	jmp    *0x13ec2(%rip)        # 416138 <XPutBackEvent@Base>
  402276:	68 24 00 00 00       	push   $0x24
  40227b:	e9 a0 fd ff ff       	jmp    402020 <_init+0x20>

0000000000402280 <XCreateBitmapFromData@plt>:
  402280:	ff 25 ba 3e 01 00    	jmp    *0x13eba(%rip)        # 416140 <XCreateBitmapFromData@Base>
  402286:	68 25 00 00 00       	push   $0x25
  40228b:	e9 90 fd ff ff       	jmp    402020 <_init+0x20>

0000000000402290 <XCreateGC@plt>:
  402290:	ff 25 b2 3e 01 00    	jmp    *0x13eb2(%rip)        # 416148 <XCreateGC@Base>
  402296:	68 26 00 00 00       	push   $0x26
  40229b:	e9 80 fd ff ff       	jmp    402020 <_init+0x20>

00000000004022a0 <getenv@plt>:
  4022a0:	ff 25 aa 3e 01 00    	jmp    *0x13eaa(%rip)        # 416150 <getenv@GLIBC_2.2.5>
  4022a6:	68 27 00 00 00       	push   $0x27
  4022ab:	e9 70 fd ff ff       	jmp    402020 <_init+0x20>

00000000004022b0 <XFlush@plt>:
  4022b0:	ff 25 a2 3e 01 00    	jmp    *0x13ea2(%rip)        # 416158 <XFlush@Base>
  4022b6:	68 28 00 00 00       	push   $0x28
  4022bb:	e9 60 fd ff ff       	jmp    402020 <_init+0x20>

00000000004022c0 <XSync@plt>:
  4022c0:	ff 25 9a 3e 01 00    	jmp    *0x13e9a(%rip)        # 416160 <XSync@Base>
  4022c6:	68 29 00 00 00       	push   $0x29
  4022cb:	e9 50 fd ff ff       	jmp    402020 <_init+0x20>

00000000004022d0 <__stack_chk_fail@plt>:
  4022d0:	ff 25 92 3e 01 00    	jmp    *0x13e92(%rip)        # 416168 <__stack_chk_fail@GLIBC_2.4>
  4022d6:	68 2a 00 00 00       	push   $0x2a
  4022db:	e9 40 fd ff ff       	jmp    402020 <_init+0x20>

00000000004022e0 <XWarpPointer@plt>:
  4022e0:	ff 25 8a 3e 01 00    	jmp    *0x13e8a(%rip)        # 416170 <XWarpPointer@Base>
  4022e6:	68 2b 00 00 00       	push   $0x2b
  4022eb:	e9 30 fd ff ff       	jmp    402020 <_init+0x20>

00000000004022f0 <XPutImage@plt>:
  4022f0:	ff 25 82 3e 01 00    	jmp    *0x13e82(%rip)        # 416178 <XPutImage@Base>
  4022f6:	68 2c 00 00 00       	push   $0x2c
  4022fb:	e9 20 fd ff ff       	jmp    402020 <_init+0x20>

0000000000402300 <XShmAttach@plt>:
  402300:	ff 25 7a 3e 01 00    	jmp    *0x13e7a(%rip)        # 416180 <XShmAttach@Base>
  402306:	68 2d 00 00 00       	push   $0x2d
  40230b:	e9 10 fd ff ff       	jmp    402020 <_init+0x20>

0000000000402310 <XDefineCursor@plt>:
  402310:	ff 25 72 3e 01 00    	jmp    *0x13e72(%rip)        # 416188 <XDefineCursor@Base>
  402316:	68 2e 00 00 00       	push   $0x2e
  40231b:	e9 00 fd ff ff       	jmp    402020 <_init+0x20>

0000000000402320 <calloc@plt>:
  402320:	ff 25 6a 3e 01 00    	jmp    *0x13e6a(%rip)        # 416190 <calloc@GLIBC_2.2.5>
  402326:	68 2f 00 00 00       	push   $0x2f
  40232b:	e9 f0 fc ff ff       	jmp    402020 <_init+0x20>

0000000000402330 <munmap@plt>:
  402330:	ff 25 62 3e 01 00    	jmp    *0x13e62(%rip)        # 416198 <munmap@GLIBC_2.2.5>
  402336:	68 30 00 00 00       	push   $0x30
  40233b:	e9 e0 fc ff ff       	jmp    402020 <_init+0x20>

0000000000402340 <shmget@plt>:
  402340:	ff 25 5a 3e 01 00    	jmp    *0x13e5a(%rip)        # 4161a0 <shmget@GLIBC_2.2.5>
  402346:	68 31 00 00 00       	push   $0x31
  40234b:	e9 d0 fc ff ff       	jmp    402020 <_init+0x20>

0000000000402350 <XInternAtom@plt>:
  402350:	ff 25 52 3e 01 00    	jmp    *0x13e52(%rip)        # 4161a8 <XInternAtom@Base>
  402356:	68 32 00 00 00       	push   $0x32
  40235b:	e9 c0 fc ff ff       	jmp    402020 <_init+0x20>

0000000000402360 <XQueryPointer@plt>:
  402360:	ff 25 4a 3e 01 00    	jmp    *0x13e4a(%rip)        # 4161b0 <XQueryPointer@Base>
  402366:	68 33 00 00 00       	push   $0x33
  40236b:	e9 b0 fc ff ff       	jmp    402020 <_init+0x20>

0000000000402370 <XUndefineCursor@plt>:
  402370:	ff 25 42 3e 01 00    	jmp    *0x13e42(%rip)        # 4161b8 <XUndefineCursor@Base>
  402376:	68 34 00 00 00       	push   $0x34
  40237b:	e9 a0 fc ff ff       	jmp    402020 <_init+0x20>

0000000000402380 <XGetVisualInfo@plt>:
  402380:	ff 25 3a 3e 01 00    	jmp    *0x13e3a(%rip)        # 4161c0 <XGetVisualInfo@Base>
  402386:	68 35 00 00 00       	push   $0x35
  40238b:	e9 90 fc ff ff       	jmp    402020 <_init+0x20>

0000000000402390 <XShmPutImage@plt>:
  402390:	ff 25 32 3e 01 00    	jmp    *0x13e32(%rip)        # 4161c8 <XShmPutImage@Base>
  402396:	68 36 00 00 00       	push   $0x36
  40239b:	e9 80 fc ff ff       	jmp    402020 <_init+0x20>

00000000004023a0 <XSetErrorHandler@plt>:
  4023a0:	ff 25 2a 3e 01 00    	jmp    *0x13e2a(%rip)        # 4161d0 <XSetErrorHandler@Base>
  4023a6:	68 37 00 00 00       	push   $0x37
  4023ab:	e9 70 fc ff ff       	jmp    402020 <_init+0x20>

00000000004023b0 <XFreePixmap@plt>:
  4023b0:	ff 25 22 3e 01 00    	jmp    *0x13e22(%rip)        # 4161d8 <XFreePixmap@Base>
  4023b6:	68 38 00 00 00       	push   $0x38
  4023bb:	e9 60 fc ff ff       	jmp    402020 <_init+0x20>

00000000004023c0 <__snprintf_chk@plt>:
  4023c0:	ff 25 1a 3e 01 00    	jmp    *0x13e1a(%rip)        # 4161e0 <__snprintf_chk@GLIBC_2.3.4>
  4023c6:	68 39 00 00 00       	push   $0x39
  4023cb:	e9 50 fc ff ff       	jmp    402020 <_init+0x20>

00000000004023d0 <rand@plt>:
  4023d0:	ff 25 12 3e 01 00    	jmp    *0x13e12(%rip)        # 4161e8 <rand@GLIBC_2.2.5>
  4023d6:	68 3a 00 00 00       	push   $0x3a
  4023db:	e9 40 fc ff ff       	jmp    402020 <_init+0x20>

00000000004023e0 <shmctl@plt>:
  4023e0:	ff 25 0a 3e 01 00    	jmp    *0x13e0a(%rip)        # 4161f0 <shmctl@GLIBC_2.2.5>
  4023e6:	68 3b 00 00 00       	push   $0x3b
  4023eb:	e9 30 fc ff ff       	jmp    402020 <_init+0x20>

00000000004023f0 <XCreatePixmap@plt>:
  4023f0:	ff 25 02 3e 01 00    	jmp    *0x13e02(%rip)        # 4161f8 <XCreatePixmap@Base>
  4023f6:	68 3c 00 00 00       	push   $0x3c
  4023fb:	e9 20 fc ff ff       	jmp    402020 <_init+0x20>

0000000000402400 <XMapRaised@plt>:
  402400:	ff 25 fa 3d 01 00    	jmp    *0x13dfa(%rip)        # 416200 <XMapRaised@Base>
  402406:	68 3d 00 00 00       	push   $0x3d
  40240b:	e9 10 fc ff ff       	jmp    402020 <_init+0x20>

0000000000402410 <XShmPixmapFormat@plt>:
  402410:	ff 25 f2 3d 01 00    	jmp    *0x13df2(%rip)        # 416208 <XShmPixmapFormat@Base>
  402416:	68 3e 00 00 00       	push   $0x3e
  40241b:	e9 00 fc ff ff       	jmp    402020 <_init+0x20>

0000000000402420 <write@plt>:
  402420:	ff 25 ea 3d 01 00    	jmp    *0x13dea(%rip)        # 416210 <write@GLIBC_2.2.5>
  402426:	68 3f 00 00 00       	push   $0x3f
  40242b:	e9 f0 fb ff ff       	jmp    402020 <_init+0x20>

0000000000402430 <XSetClipOrigin@plt>:
  402430:	ff 25 e2 3d 01 00    	jmp    *0x13de2(%rip)        # 416218 <XSetClipOrigin@Base>
  402436:	68 40 00 00 00       	push   $0x40
  40243b:	e9 e0 fb ff ff       	jmp    402020 <_init+0x20>

0000000000402440 <XShmDetach@plt>:
  402440:	ff 25 da 3d 01 00    	jmp    *0x13dda(%rip)        # 416220 <XShmDetach@Base>
  402446:	68 41 00 00 00       	push   $0x41
  40244b:	e9 d0 fb ff ff       	jmp    402020 <_init+0x20>

0000000000402450 <open@plt>:
  402450:	ff 25 d2 3d 01 00    	jmp    *0x13dd2(%rip)        # 416228 <open@GLIBC_2.2.5>
  402456:	68 42 00 00 00       	push   $0x42
  40245b:	e9 c0 fb ff ff       	jmp    402020 <_init+0x20>

0000000000402460 <mmap@plt>:
  402460:	ff 25 ca 3d 01 00    	jmp    *0x13dca(%rip)        # 416230 <mmap@GLIBC_2.2.5>
  402466:	68 43 00 00 00       	push   $0x43
  40246b:	e9 b0 fb ff ff       	jmp    402020 <_init+0x20>

0000000000402470 <XPending@plt>:
  402470:	ff 25 c2 3d 01 00    	jmp    *0x13dc2(%rip)        # 416238 <XPending@Base>
  402476:	68 44 00 00 00       	push   $0x44
  40247b:	e9 a0 fb ff ff       	jmp    402020 <_init+0x20>

0000000000402480 <shmat@plt>:
  402480:	ff 25 ba 3d 01 00    	jmp    *0x13dba(%rip)        # 416240 <shmat@GLIBC_2.2.5>
  402486:	68 45 00 00 00       	push   $0x45
  40248b:	e9 90 fb ff ff       	jmp    402020 <_init+0x20>

0000000000402490 <XChangeWindowAttributes@plt>:
  402490:	ff 25 b2 3d 01 00    	jmp    *0x13db2(%rip)        # 416248 <XChangeWindowAttributes@Base>
  402496:	68 46 00 00 00       	push   $0x46
  40249b:	e9 80 fb ff ff       	jmp    402020 <_init+0x20>

00000000004024a0 <sqrtf@plt>:
  4024a0:	ff 25 aa 3d 01 00    	jmp    *0x13daa(%rip)        # 416250 <sqrtf@GLIBC_2.2.5>
  4024a6:	68 47 00 00 00       	push   $0x47
  4024ab:	e9 70 fb ff ff       	jmp    402020 <_init+0x20>

Disassembly of section .text:

00000000004024b0 <_start>:
  4024b0:	f3 0f 1e fa          	endbr64 
  4024b4:	31 ed                	xor    %ebp,%ebp
  4024b6:	49 89 d1             	mov    %rdx,%r9
  4024b9:	5e                   	pop    %rsi
  4024ba:	48 89 e2             	mov    %rsp,%rdx
  4024bd:	48 83 e4 f0          	and    $0xfffffffffffffff0,%rsp
  4024c1:	50                   	push   %rax
  4024c2:	54                   	push   %rsp
  4024c3:	45 31 c0             	xor    %r8d,%r8d
  4024c6:	31 c9                	xor    %ecx,%ecx
  4024c8:	48 c7 c7 a0 25 40 00 	mov    $0x4025a0,%rdi
  4024cf:	ff 15 23 3b 01 00    	call   *0x13b23(%rip)        # 415ff8 <__libc_start_main@GLIBC_2.34>
  4024d5:	f4                   	hlt    
  4024d6:	66 2e 0f 1f 84 00 00 	cs nopw 0x0(%rax,%rax,1)
  4024dd:	00 00 00 

00000000004024e0 <_dl_relocate_static_pie>:
  4024e0:	f3 0f 1e fa          	endbr64 
  4024e4:	c3                   	ret    
  4024e5:	66 2e 0f 1f 84 00 00 	cs nopw 0x0(%rax,%rax,1)
  4024ec:	00 00 00 
  4024ef:	90                   	nop

00000000004024f0 <deregister_tm_clones>:
  4024f0:	b8 c0 92 41 00       	mov    $0x4192c0,%eax
  4024f5:	48 3d c0 92 41 00    	cmp    $0x4192c0,%rax
  4024fb:	74 13                	je     402510 <deregister_tm_clones+0x20>
  4024fd:	b8 00 00 00 00       	mov    $0x0,%eax
  402502:	48 85 c0             	test   %rax,%rax
  402505:	74 09                	je     402510 <deregister_tm_clones+0x20>
  402507:	bf c0 92 41 00       	mov    $0x4192c0,%edi
  40250c:	ff e0                	jmp    *%rax
  40250e:	66 90                	xchg   %ax,%ax
  402510:	c3                   	ret    
  402511:	66 66 2e 0f 1f 84 00 	data16 cs nopw 0x0(%rax,%rax,1)
  402518:	00 00 00 00 
  40251c:	0f 1f 40 00          	nopl   0x0(%rax)

0000000000402520 <register_tm_clones>:
  402520:	be c0 92 41 00       	mov    $0x4192c0,%esi
  402525:	48 81 ee c0 92 41 00 	sub    $0x4192c0,%rsi
  40252c:	48 89 f0             	mov    %rsi,%rax
  40252f:	48 c1 ee 3f          	shr    $0x3f,%rsi
  402533:	48 c1 f8 03          	sar    $0x3,%rax
  402537:	48 01 c6             	add    %rax,%rsi
  40253a:	48 d1 fe             	sar    %rsi
  40253d:	74 11                	je     402550 <register_tm_clones+0x30>
  40253f:	b8 00 00 00 00       	mov    $0x0,%eax
  402544:	48 85 c0             	test   %rax,%rax
  402547:	74 07                	je     402550 <register_tm_clones+0x30>
  402549:	bf c0 92 41 00       	mov    $0x4192c0,%edi
  40254e:	ff e0                	jmp    *%rax
  402550:	c3                   	ret    
  402551:	66 66 2e 0f 1f 84 00 	data16 cs nopw 0x0(%rax,%rax,1)
  402558:	00 00 00 00 
  40255c:	0f 1f 40 00          	nopl   0x0(%rax)

0000000000402560 <__do_global_dtors_aux>:
  402560:	f3 0f 1e fa          	endbr64 
  402564:	80 3d 55 6d 01 00 00 	cmpb   $0x0,0x16d55(%rip)        # 4192c0 <__TMC_END__>
  40256b:	75 13                	jne    402580 <__do_global_dtors_aux+0x20>
  40256d:	55                   	push   %rbp
  40256e:	48 89 e5             	mov    %rsp,%rbp
  402571:	e8 7a ff ff ff       	call   4024f0 <deregister_tm_clones>
  402576:	c6 05 43 6d 01 00 01 	movb   $0x1,0x16d43(%rip)        # 4192c0 <__TMC_END__>
  40257d:	5d                   	pop    %rbp
  40257e:	c3                   	ret    
  40257f:	90                   	nop
  402580:	c3                   	ret    
  402581:	66 66 2e 0f 1f 84 00 	data16 cs nopw 0x0(%rax,%rax,1)
  402588:	00 00 00 00 
  40258c:	0f 1f 40 00          	nopl   0x0(%rax)

0000000000402590 <frame_dummy>:
  402590:	f3 0f 1e fa          	endbr64 
  402594:	eb 8a                	jmp    402520 <register_tm_clones>
  402596:	66 2e 0f 1f 84 00 00 	cs nopw 0x0(%rax,%rax,1)
  40259d:	00 00 00 

00000000004025a0 <main>:
	mlx_destroy_display(game->mlx);
	free(game->mlx);
}

int	main(int argc, char *argv[])
{
  4025a0:	55                   	push   %rbp
  4025a1:	41 57                	push   %r15
  4025a3:	41 56                	push   %r14
  4025a5:	41 55                	push   %r13
  4025a7:	41 54                	push   %r12
  4025a9:	53                   	push   %rbx
  4025aa:	48 81 ec e8 07 00 00 	sub    $0x7e8,%rsp
  4025b1:	49 89 f6             	mov    %rsi,%r14
  4025b4:	41 89 ff             	mov    %edi,%r15d
	t_game	game;

	if (argc > 1 && argc <= 4 && !_setup_game(&game))
  4025b7:	41 8d 47 fe          	lea    -0x2(%r15),%eax
  4025bb:	83 f8 02             	cmp    $0x2,%eax
  4025be:	0f 87 4e 0c 00 00    	ja     403212 <main+0xc72>
  4025c4:	48 8d 7c 24 08       	lea    0x8(%rsp),%rdi
	ft_bzero(g, sizeof(t_game));
  4025c9:	be 58 07 00 00       	mov    $0x758,%esi
  4025ce:	e8 0d ac 00 00       	call   40d1e0 <ft_bzero>
  4025d3:	31 db                	xor    %ebx,%ebx
	g->mlx = mlx_init();
  4025d5:	31 c0                	xor    %eax,%eax
  4025d7:	e8 b4 8c 00 00       	call   40b290 <mlx_init>
  4025dc:	48 89 44 24 08       	mov    %rax,0x8(%rsp)
	if (!g->mlx)
  4025e1:	48 85 c0             	test   %rax,%rax
  4025e4:	0f 84 8c 0d 00 00    	je     403376 <main+0xdd6>
	g->win = mlx_new_window(g->mlx, WIN_WIDTH, WIN_HEIGHT, "so_long");
  4025ea:	48 8d 0d 26 ca 00 00 	lea    0xca26(%rip),%rcx        # 40f017 <_IO_stdin_used+0x17>
  4025f1:	48 89 c7             	mov    %rax,%rdi
  4025f4:	be a0 05 00 00       	mov    $0x5a0,%esi
  4025f9:	ba c0 03 00 00       	mov    $0x3c0,%edx
  4025fe:	e8 ed 8d 00 00       	call   40b3f0 <mlx_new_window>
  402603:	48 89 44 24 10       	mov    %rax,0x10(%rsp)
	if (!g->win)
  402608:	48 85 c0             	test   %rax,%rax
  40260b:	0f 84 59 0d 00 00    	je     40336a <main+0xdca>
	g->keys = ft_calloc(0xFFFF, sizeof(bool));
  402611:	bf ff ff 00 00       	mov    $0xffff,%edi
  402616:	be 01 00 00 00       	mov    $0x1,%esi
  40261b:	e8 80 ae 00 00       	call   40d4a0 <ft_calloc>
  402620:	48 89 44 24 18       	mov    %rax,0x18(%rsp)
	g->canvas = mlx_new_image(g->mlx, WIN_WIDTH, WIN_HEIGHT);
  402625:	48 8b 7c 24 08       	mov    0x8(%rsp),%rdi
  40262a:	be a0 05 00 00       	mov    $0x5a0,%esi
  40262f:	ba c0 03 00 00       	mov    $0x3c0,%edx
  402634:	e8 47 96 00 00       	call   40bc80 <mlx_new_image>
  402639:	48 89 44 24 20       	mov    %rax,0x20(%rsp)
	g->entities = vector_new(sizeof(t_entity *), 0);
  40263e:	bf 08 00 00 00       	mov    $0x8,%edi
  402643:	31 f6                	xor    %esi,%esi
  402645:	e8 06 7d 00 00       	call   40a350 <vector_new>
  40264a:	48 89 44 24 28       	mov    %rax,0x28(%rsp)
	g->rdr = rdr_new();
  40264f:	e8 8c 7e 00 00       	call   40a4e0 <rdr_new>
  402654:	48 89 44 24 38       	mov    %rax,0x38(%rsp)
	g->buffer = ft_calloc(128, 1);
  402659:	bf 80 00 00 00       	mov    $0x80,%edi
  40265e:	be 01 00 00 00       	mov    $0x1,%esi
  402663:	e8 38 ae 00 00       	call   40d4a0 <ft_calloc>
  402668:	48 89 44 24 40       	mov    %rax,0x40(%rsp)
  40266d:	4c 8d 64 24 08       	lea    0x8(%rsp),%r12
	load_sprites(g);
  402672:	4c 89 e7             	mov    %r12,%rdi
  402675:	e8 06 14 00 00       	call   403a80 <load_sprites>
	edit_init(&g->editor, g);
  40267a:	48 8d 7c 24 78       	lea    0x78(%rsp),%rdi
  40267f:	4c 89 e6             	mov    %r12,%rsi
  402682:	e8 f9 40 00 00       	call   406780 <edit_init>
	g->font = font_load(g, "textures/gen/regular");
  402687:	48 8d 35 91 c9 00 00 	lea    0xc991(%rip),%rsi        # 40f01f <_IO_stdin_used+0x1f>
  40268e:	4c 89 e7             	mov    %r12,%rdi
  402691:	e8 5a 89 00 00       	call   40aff0 <font_load>
  402696:	48 89 84 24 30 03 00 	mov    %rax,0x330(%rsp)
  40269d:	00 
	g->small_font = font_load(g, "textures/gen/small");
  40269e:	48 8d 35 8f c9 00 00 	lea    0xc98f(%rip),%rsi        # 40f034 <_IO_stdin_used+0x34>
  4026a5:	4c 89 e7             	mov    %r12,%rdi
  4026a8:	e8 43 89 00 00       	call   40aff0 <font_load>
  4026ad:	48 89 84 24 38 03 00 	mov    %rax,0x338(%rsp)
  4026b4:	00 
	sprites = malloc(sizeof(t_img) * size);
  4026b5:	bf 10 02 00 00       	mov    $0x210,%edi
  4026ba:	e8 51 fa ff ff       	call   402110 <malloc@plt>
  4026bf:	48 89 c3             	mov    %rax,%rbx
		ft_sprintf(buf, name, i);
  4026c2:	48 8d 2d 7e c9 00 00 	lea    0xc97e(%rip),%rbp        # 40f047 <_IO_stdin_used+0x47>
  4026c9:	4c 8d ac 24 60 07 00 	lea    0x760(%rsp),%r13
  4026d0:	00 
  4026d1:	4c 89 ef             	mov    %r13,%rdi
  4026d4:	48 89 ee             	mov    %rbp,%rsi
  4026d7:	31 d2                	xor    %edx,%edx
  4026d9:	31 c0                	xor    %eax,%eax
  4026db:	e8 30 b1 00 00       	call   40d810 <ft_sprintf>
		sprites[i] = sprite(game, buf);
  4026e0:	4c 89 e7             	mov    %r12,%rdi
  4026e3:	4c 89 ee             	mov    %r13,%rsi
  4026e6:	e8 d5 1e 00 00       	call   4045c0 <sprite>
  4026eb:	48 89 03             	mov    %rax,(%rbx)
		ft_sprintf(buf, name, i);
  4026ee:	4c 89 ef             	mov    %r13,%rdi
  4026f1:	48 89 ee             	mov    %rbp,%rsi
  4026f4:	ba 01 00 00 00       	mov    $0x1,%edx
  4026f9:	31 c0                	xor    %eax,%eax
  4026fb:	e8 10 b1 00 00       	call   40d810 <ft_sprintf>
		sprites[i] = sprite(game, buf);
  402700:	4c 89 e7             	mov    %r12,%rdi
  402703:	4c 89 ee             	mov    %r13,%rsi
  402706:	e8 b5 1e 00 00       	call   4045c0 <sprite>
  40270b:	48 89 43 08          	mov    %rax,0x8(%rbx)
		ft_sprintf(buf, name, i);
  40270f:	4c 89 ef             	mov    %r13,%rdi
  402712:	48 89 ee             	mov    %rbp,%rsi
  402715:	ba 02 00 00 00       	mov    $0x2,%edx
  40271a:	31 c0                	xor    %eax,%eax
  40271c:	e8 ef b0 00 00       	call   40d810 <ft_sprintf>
		sprites[i] = sprite(game, buf);
  402721:	4c 89 e7             	mov    %r12,%rdi
  402724:	4c 89 ee             	mov    %r13,%rsi
  402727:	e8 94 1e 00 00       	call   4045c0 <sprite>
  40272c:	48 89 43 10          	mov    %rax,0x10(%rbx)
		ft_sprintf(buf, name, i);
  402730:	4c 89 ef             	mov    %r13,%rdi
  402733:	48 89 ee             	mov    %rbp,%rsi
  402736:	ba 03 00 00 00       	mov    $0x3,%edx
  40273b:	31 c0                	xor    %eax,%eax
  40273d:	e8 ce b0 00 00       	call   40d810 <ft_sprintf>
		sprites[i] = sprite(game, buf);
  402742:	4c 89 e7             	mov    %r12,%rdi
  402745:	4c 89 ee             	mov    %r13,%rsi
  402748:	e8 73 1e 00 00       	call   4045c0 <sprite>
  40274d:	48 89 43 18          	mov    %rax,0x18(%rbx)
		ft_sprintf(buf, name, i);
  402751:	4c 89 ef             	mov    %r13,%rdi
  402754:	48 89 ee             	mov    %rbp,%rsi
  402757:	ba 04 00 00 00       	mov    $0x4,%edx
  40275c:	31 c0                	xor    %eax,%eax
  40275e:	e8 ad b0 00 00       	call   40d810 <ft_sprintf>
		sprites[i] = sprite(game, buf);
  402763:	4c 89 e7             	mov    %r12,%rdi
  402766:	4c 89 ee             	mov    %r13,%rsi
  402769:	e8 52 1e 00 00       	call   4045c0 <sprite>
  40276e:	48 89 43 20          	mov    %rax,0x20(%rbx)
		ft_sprintf(buf, name, i);
  402772:	4c 89 ef             	mov    %r13,%rdi
  402775:	48 89 ee             	mov    %rbp,%rsi
  402778:	ba 05 00 00 00       	mov    $0x5,%edx
  40277d:	31 c0                	xor    %eax,%eax
  40277f:	e8 8c b0 00 00       	call   40d810 <ft_sprintf>
		sprites[i] = sprite(game, buf);
  402784:	4c 89 e7             	mov    %r12,%rdi
  402787:	4c 89 ee             	mov    %r13,%rsi
  40278a:	e8 31 1e 00 00       	call   4045c0 <sprite>
  40278f:	48 89 43 28          	mov    %rax,0x28(%rbx)
	g->goblin_idle = _load_frames(g, "textures/gen/Goblin_Idle/%d.xpm", 6);
  402793:	48 89 9c 24 60 03 00 	mov    %rbx,0x360(%rsp)
  40279a:	00 
	sprites = malloc(sizeof(t_img) * size);
  40279b:	bf 10 02 00 00       	mov    $0x210,%edi
  4027a0:	e8 6b f9 ff ff       	call   402110 <malloc@plt>
  4027a5:	48 89 c3             	mov    %rax,%rbx
		ft_sprintf(buf, name, i);
  4027a8:	48 8d 2d b8 c8 00 00 	lea    0xc8b8(%rip),%rbp        # 40f067 <_IO_stdin_used+0x67>
  4027af:	4c 89 ef             	mov    %r13,%rdi
  4027b2:	48 89 ee             	mov    %rbp,%rsi
  4027b5:	31 d2                	xor    %edx,%edx
  4027b7:	31 c0                	xor    %eax,%eax
  4027b9:	e8 52 b0 00 00       	call   40d810 <ft_sprintf>
		sprites[i] = sprite(game, buf);
  4027be:	4c 89 e7             	mov    %r12,%rdi
  4027c1:	4c 89 ee             	mov    %r13,%rsi
  4027c4:	e8 f7 1d 00 00       	call   4045c0 <sprite>
  4027c9:	48 89 03             	mov    %rax,(%rbx)
		ft_sprintf(buf, name, i);
  4027cc:	4c 89 ef             	mov    %r13,%rdi
  4027cf:	48 89 ee             	mov    %rbp,%rsi
  4027d2:	ba 01 00 00 00       	mov    $0x1,%edx
  4027d7:	31 c0                	xor    %eax,%eax
  4027d9:	e8 32 b0 00 00       	call   40d810 <ft_sprintf>
		sprites[i] = sprite(game, buf);
  4027de:	4c 89 e7             	mov    %r12,%rdi
  4027e1:	4c 89 ee             	mov    %r13,%rsi
  4027e4:	e8 d7 1d 00 00       	call   4045c0 <sprite>
  4027e9:	48 89 43 08          	mov    %rax,0x8(%rbx)
		ft_sprintf(buf, name, i);
  4027ed:	4c 89 ef             	mov    %r13,%rdi
  4027f0:	48 89 ee             	mov    %rbp,%rsi
  4027f3:	ba 02 00 00 00       	mov    $0x2,%edx
  4027f8:	31 c0                	xor    %eax,%eax
  4027fa:	e8 11 b0 00 00       	call   40d810 <ft_sprintf>
		sprites[i] = sprite(game, buf);
  4027ff:	4c 89 e7             	mov    %r12,%rdi
  402802:	4c 89 ee             	mov    %r13,%rsi
  402805:	e8 b6 1d 00 00       	call   4045c0 <sprite>
  40280a:	48 89 43 10          	mov    %rax,0x10(%rbx)
		ft_sprintf(buf, name, i);
  40280e:	4c 89 ef             	mov    %r13,%rdi
  402811:	48 89 ee             	mov    %rbp,%rsi
  402814:	ba 03 00 00 00       	mov    $0x3,%edx
  402819:	31 c0                	xor    %eax,%eax
  40281b:	e8 f0 af 00 00       	call   40d810 <ft_sprintf>
		sprites[i] = sprite(game, buf);
  402820:	4c 89 e7             	mov    %r12,%rdi
  402823:	4c 89 ee             	mov    %r13,%rsi
  402826:	e8 95 1d 00 00       	call   4045c0 <sprite>
  40282b:	48 89 43 18          	mov    %rax,0x18(%rbx)
		ft_sprintf(buf, name, i);
  40282f:	4c 89 ef             	mov    %r13,%rdi
  402832:	48 89 ee             	mov    %rbp,%rsi
  402835:	ba 04 00 00 00       	mov    $0x4,%edx
  40283a:	31 c0                	xor    %eax,%eax
  40283c:	e8 cf af 00 00       	call   40d810 <ft_sprintf>
		sprites[i] = sprite(game, buf);
  402841:	4c 89 e7             	mov    %r12,%rdi
  402844:	4c 89 ee             	mov    %r13,%rsi
  402847:	e8 74 1d 00 00       	call   4045c0 <sprite>
  40284c:	48 89 43 20          	mov    %rax,0x20(%rbx)
		ft_sprintf(buf, name, i);
  402850:	4c 89 ef             	mov    %r13,%rdi
  402853:	48 89 ee             	mov    %rbp,%rsi
  402856:	ba 05 00 00 00       	mov    $0x5,%edx
  40285b:	31 c0                	xor    %eax,%eax
  40285d:	e8 ae af 00 00       	call   40d810 <ft_sprintf>
		sprites[i] = sprite(game, buf);
  402862:	4c 89 e7             	mov    %r12,%rdi
  402865:	4c 89 ee             	mov    %r13,%rsi
  402868:	e8 53 1d 00 00       	call   4045c0 <sprite>
  40286d:	48 89 43 28          	mov    %rax,0x28(%rbx)
	g->goblin_walk = _load_frames(g, "textures/gen/Goblin_Walk/%d.xpm", 6);
  402871:	48 89 9c 24 58 03 00 	mov    %rbx,0x358(%rsp)
  402878:	00 
	sprites = malloc(sizeof(t_img) * size);
  402879:	bf 10 02 00 00       	mov    $0x210,%edi
  40287e:	e8 8d f8 ff ff       	call   402110 <malloc@plt>
  402883:	48 89 c3             	mov    %rax,%rbx
		ft_sprintf(buf, name, i);
  402886:	48 8d 2d fa c7 00 00 	lea    0xc7fa(%rip),%rbp        # 40f087 <_IO_stdin_used+0x87>
  40288d:	4c 89 ef             	mov    %r13,%rdi
  402890:	48 89 ee             	mov    %rbp,%rsi
  402893:	31 d2                	xor    %edx,%edx
  402895:	31 c0                	xor    %eax,%eax
  402897:	e8 74 af 00 00       	call   40d810 <ft_sprintf>
		sprites[i] = sprite(game, buf);
  40289c:	4c 89 e7             	mov    %r12,%rdi
  40289f:	4c 89 ee             	mov    %r13,%rsi
  4028a2:	e8 19 1d 00 00       	call   4045c0 <sprite>
  4028a7:	48 89 03             	mov    %rax,(%rbx)
		ft_sprintf(buf, name, i);
  4028aa:	4c 89 ef             	mov    %r13,%rdi
  4028ad:	48 89 ee             	mov    %rbp,%rsi
  4028b0:	ba 01 00 00 00       	mov    $0x1,%edx
  4028b5:	31 c0                	xor    %eax,%eax
  4028b7:	e8 54 af 00 00       	call   40d810 <ft_sprintf>
		sprites[i] = sprite(game, buf);
  4028bc:	4c 89 e7             	mov    %r12,%rdi
  4028bf:	4c 89 ee             	mov    %r13,%rsi
  4028c2:	e8 f9 1c 00 00       	call   4045c0 <sprite>
  4028c7:	48 89 43 08          	mov    %rax,0x8(%rbx)
		ft_sprintf(buf, name, i);
  4028cb:	4c 89 ef             	mov    %r13,%rdi
  4028ce:	48 89 ee             	mov    %rbp,%rsi
  4028d1:	ba 02 00 00 00       	mov    $0x2,%edx
  4028d6:	31 c0                	xor    %eax,%eax
  4028d8:	e8 33 af 00 00       	call   40d810 <ft_sprintf>
		sprites[i] = sprite(game, buf);
  4028dd:	4c 89 e7             	mov    %r12,%rdi
  4028e0:	4c 89 ee             	mov    %r13,%rsi
  4028e3:	e8 d8 1c 00 00       	call   4045c0 <sprite>
  4028e8:	48 89 43 10          	mov    %rax,0x10(%rbx)
		ft_sprintf(buf, name, i);
  4028ec:	4c 89 ef             	mov    %r13,%rdi
  4028ef:	48 89 ee             	mov    %rbp,%rsi
  4028f2:	ba 03 00 00 00       	mov    $0x3,%edx
  4028f7:	31 c0                	xor    %eax,%eax
  4028f9:	e8 12 af 00 00       	call   40d810 <ft_sprintf>
		sprites[i] = sprite(game, buf);
  4028fe:	4c 89 e7             	mov    %r12,%rdi
  402901:	4c 89 ee             	mov    %r13,%rsi
  402904:	e8 b7 1c 00 00       	call   4045c0 <sprite>
  402909:	48 89 43 18          	mov    %rax,0x18(%rbx)
		ft_sprintf(buf, name, i);
  40290d:	4c 89 ef             	mov    %r13,%rdi
  402910:	48 89 ee             	mov    %rbp,%rsi
  402913:	ba 04 00 00 00       	mov    $0x4,%edx
  402918:	31 c0                	xor    %eax,%eax
  40291a:	e8 f1 ae 00 00       	call   40d810 <ft_sprintf>
		sprites[i] = sprite(game, buf);
  40291f:	4c 89 e7             	mov    %r12,%rdi
  402922:	4c 89 ee             	mov    %r13,%rsi
  402925:	e8 96 1c 00 00       	call   4045c0 <sprite>
  40292a:	48 89 43 20          	mov    %rax,0x20(%rbx)
		ft_sprintf(buf, name, i);
  40292e:	4c 89 ef             	mov    %r13,%rdi
  402931:	48 89 ee             	mov    %rbp,%rsi
  402934:	ba 05 00 00 00       	mov    $0x5,%edx
  402939:	31 c0                	xor    %eax,%eax
  40293b:	e8 d0 ae 00 00       	call   40d810 <ft_sprintf>
		sprites[i] = sprite(game, buf);
  402940:	4c 89 e7             	mov    %r12,%rdi
  402943:	4c 89 ee             	mov    %r13,%rsi
  402946:	e8 75 1c 00 00       	call   4045c0 <sprite>
  40294b:	48 89 43 28          	mov    %rax,0x28(%rbx)
	g->goblin_atk_side = _load_frames(g,
  40294f:	48 89 9c 24 68 03 00 	mov    %rbx,0x368(%rsp)
  402956:	00 
	sprites = malloc(sizeof(t_img) * size);
  402957:	bf 10 02 00 00       	mov    $0x210,%edi
  40295c:	e8 af f7 ff ff       	call   402110 <malloc@plt>
  402961:	48 89 c3             	mov    %rax,%rbx
		ft_sprintf(buf, name, i);
  402964:	48 8d 2d 40 c7 00 00 	lea    0xc740(%rip),%rbp        # 40f0ab <_IO_stdin_used+0xab>
  40296b:	4c 89 ef             	mov    %r13,%rdi
  40296e:	48 89 ee             	mov    %rbp,%rsi
  402971:	31 d2                	xor    %edx,%edx
  402973:	31 c0                	xor    %eax,%eax
  402975:	e8 96 ae 00 00       	call   40d810 <ft_sprintf>
		sprites[i] = sprite(game, buf);
  40297a:	4c 89 e7             	mov    %r12,%rdi
  40297d:	4c 89 ee             	mov    %r13,%rsi
  402980:	e8 3b 1c 00 00       	call   4045c0 <sprite>
  402985:	48 89 03             	mov    %rax,(%rbx)
		ft_sprintf(buf, name, i);
  402988:	4c 89 ef             	mov    %r13,%rdi
  40298b:	48 89 ee             	mov    %rbp,%rsi
  40298e:	ba 01 00 00 00       	mov    $0x1,%edx
  402993:	31 c0                	xor    %eax,%eax
  402995:	e8 76 ae 00 00       	call   40d810 <ft_sprintf>
		sprites[i] = sprite(game, buf);
  40299a:	4c 89 e7             	mov    %r12,%rdi
  40299d:	4c 89 ee             	mov    %r13,%rsi
  4029a0:	e8 1b 1c 00 00       	call   4045c0 <sprite>
  4029a5:	48 89 43 08          	mov    %rax,0x8(%rbx)
		ft_sprintf(buf, name, i);
  4029a9:	4c 89 ef             	mov    %r13,%rdi
  4029ac:	48 89 ee             	mov    %rbp,%rsi
  4029af:	ba 02 00 00 00       	mov    $0x2,%edx
  4029b4:	31 c0                	xor    %eax,%eax
  4029b6:	e8 55 ae 00 00       	call   40d810 <ft_sprintf>
		sprites[i] = sprite(game, buf);
  4029bb:	4c 89 e7             	mov    %r12,%rdi
  4029be:	4c 89 ee             	mov    %r13,%rsi
  4029c1:	e8 fa 1b 00 00       	call   4045c0 <sprite>
  4029c6:	48 89 43 10          	mov    %rax,0x10(%rbx)
		ft_sprintf(buf, name, i);
  4029ca:	4c 89 ef             	mov    %r13,%rdi
  4029cd:	48 89 ee             	mov    %rbp,%rsi
  4029d0:	ba 03 00 00 00       	mov    $0x3,%edx
  4029d5:	31 c0                	xor    %eax,%eax
  4029d7:	e8 34 ae 00 00       	call   40d810 <ft_sprintf>
		sprites[i] = sprite(game, buf);
  4029dc:	4c 89 e7             	mov    %r12,%rdi
  4029df:	4c 89 ee             	mov    %r13,%rsi
  4029e2:	e8 d9 1b 00 00       	call   4045c0 <sprite>
  4029e7:	48 89 43 18          	mov    %rax,0x18(%rbx)
		ft_sprintf(buf, name, i);
  4029eb:	4c 89 ef             	mov    %r13,%rdi
  4029ee:	48 89 ee             	mov    %rbp,%rsi
  4029f1:	ba 04 00 00 00       	mov    $0x4,%edx
  4029f6:	31 c0                	xor    %eax,%eax
  4029f8:	e8 13 ae 00 00       	call   40d810 <ft_sprintf>
		sprites[i] = sprite(game, buf);
  4029fd:	4c 89 e7             	mov    %r12,%rdi
  402a00:	4c 89 ee             	mov    %r13,%rsi
  402a03:	e8 b8 1b 00 00       	call   4045c0 <sprite>
  402a08:	48 89 43 20          	mov    %rax,0x20(%rbx)
		ft_sprintf(buf, name, i);
  402a0c:	4c 89 ef             	mov    %r13,%rdi
  402a0f:	48 89 ee             	mov    %rbp,%rsi
  402a12:	ba 05 00 00 00       	mov    $0x5,%edx
  402a17:	31 c0                	xor    %eax,%eax
  402a19:	e8 f2 ad 00 00       	call   40d810 <ft_sprintf>
		sprites[i] = sprite(game, buf);
  402a1e:	4c 89 e7             	mov    %r12,%rdi
  402a21:	4c 89 ee             	mov    %r13,%rsi
  402a24:	e8 97 1b 00 00       	call   4045c0 <sprite>
  402a29:	48 89 43 28          	mov    %rax,0x28(%rbx)
	g->goblin2_idle = _load_frames(g, "textures/gen/Goblin2_Idle/%d.xpm", 6);
  402a2d:	48 89 9c 24 78 03 00 	mov    %rbx,0x378(%rsp)
  402a34:	00 
	sprites = malloc(sizeof(t_img) * size);
  402a35:	bf 10 02 00 00       	mov    $0x210,%edi
  402a3a:	e8 d1 f6 ff ff       	call   402110 <malloc@plt>
  402a3f:	48 89 c3             	mov    %rax,%rbx
		ft_sprintf(buf, name, i);
  402a42:	48 8d 2d 83 c6 00 00 	lea    0xc683(%rip),%rbp        # 40f0cc <_IO_stdin_used+0xcc>
  402a49:	4c 89 ef             	mov    %r13,%rdi
  402a4c:	48 89 ee             	mov    %rbp,%rsi
  402a4f:	31 d2                	xor    %edx,%edx
  402a51:	31 c0                	xor    %eax,%eax
  402a53:	e8 b8 ad 00 00       	call   40d810 <ft_sprintf>
		sprites[i] = sprite(game, buf);
  402a58:	4c 89 e7             	mov    %r12,%rdi
  402a5b:	4c 89 ee             	mov    %r13,%rsi
  402a5e:	e8 5d 1b 00 00       	call   4045c0 <sprite>
  402a63:	48 89 03             	mov    %rax,(%rbx)
		ft_sprintf(buf, name, i);
  402a66:	4c 89 ef             	mov    %r13,%rdi
  402a69:	48 89 ee             	mov    %rbp,%rsi
  402a6c:	ba 01 00 00 00       	mov    $0x1,%edx
  402a71:	31 c0                	xor    %eax,%eax
  402a73:	e8 98 ad 00 00       	call   40d810 <ft_sprintf>
		sprites[i] = sprite(game, buf);
  402a78:	4c 89 e7             	mov    %r12,%rdi
  402a7b:	4c 89 ee             	mov    %r13,%rsi
  402a7e:	e8 3d 1b 00 00       	call   4045c0 <sprite>
  402a83:	48 89 43 08          	mov    %rax,0x8(%rbx)
		ft_sprintf(buf, name, i);
  402a87:	4c 89 ef             	mov    %r13,%rdi
  402a8a:	48 89 ee             	mov    %rbp,%rsi
  402a8d:	ba 02 00 00 00       	mov    $0x2,%edx
  402a92:	31 c0                	xor    %eax,%eax
  402a94:	e8 77 ad 00 00       	call   40d810 <ft_sprintf>
		sprites[i] = sprite(game, buf);
  402a99:	4c 89 e7             	mov    %r12,%rdi
  402a9c:	4c 89 ee             	mov    %r13,%rsi
  402a9f:	e8 1c 1b 00 00       	call   4045c0 <sprite>
  402aa4:	48 89 43 10          	mov    %rax,0x10(%rbx)
		ft_sprintf(buf, name, i);
  402aa8:	4c 89 ef             	mov    %r13,%rdi
  402aab:	48 89 ee             	mov    %rbp,%rsi
  402aae:	ba 03 00 00 00       	mov    $0x3,%edx
  402ab3:	31 c0                	xor    %eax,%eax
  402ab5:	e8 56 ad 00 00       	call   40d810 <ft_sprintf>
		sprites[i] = sprite(game, buf);
  402aba:	4c 89 e7             	mov    %r12,%rdi
  402abd:	4c 89 ee             	mov    %r13,%rsi
  402ac0:	e8 fb 1a 00 00       	call   4045c0 <sprite>
  402ac5:	48 89 43 18          	mov    %rax,0x18(%rbx)
		ft_sprintf(buf, name, i);
  402ac9:	4c 89 ef             	mov    %r13,%rdi
  402acc:	48 89 ee             	mov    %rbp,%rsi
  402acf:	ba 04 00 00 00       	mov    $0x4,%edx
  402ad4:	31 c0                	xor    %eax,%eax
  402ad6:	e8 35 ad 00 00       	call   40d810 <ft_sprintf>
		sprites[i] = sprite(game, buf);
  402adb:	4c 89 e7             	mov    %r12,%rdi
  402ade:	4c 89 ee             	mov    %r13,%rsi
  402ae1:	e8 da 1a 00 00       	call   4045c0 <sprite>
  402ae6:	48 89 43 20          	mov    %rax,0x20(%rbx)
		ft_sprintf(buf, name, i);
  402aea:	4c 89 ef             	mov    %r13,%rdi
  402aed:	48 89 ee             	mov    %rbp,%rsi
  402af0:	ba 05 00 00 00       	mov    $0x5,%edx
  402af5:	31 c0                	xor    %eax,%eax
  402af7:	e8 14 ad 00 00       	call   40d810 <ft_sprintf>
		sprites[i] = sprite(game, buf);
  402afc:	4c 89 e7             	mov    %r12,%rdi
  402aff:	4c 89 ee             	mov    %r13,%rsi
  402b02:	e8 b9 1a 00 00       	call   4045c0 <sprite>
  402b07:	48 89 43 28          	mov    %rax,0x28(%rbx)
	g->goblin2_walk = _load_frames(g, "textures/gen/Goblin2_Walk/%d.xpm", 6);
  402b0b:	48 89 9c 24 70 03 00 	mov    %rbx,0x370(%rsp)
  402b12:	00 
	sprites = malloc(sizeof(t_img) * size);
  402b13:	bf 10 02 00 00       	mov    $0x210,%edi
  402b18:	e8 f3 f5 ff ff       	call   402110 <malloc@plt>
  402b1d:	48 89 c3             	mov    %rax,%rbx
		ft_sprintf(buf, name, i);
  402b20:	48 8d 2d c6 c5 00 00 	lea    0xc5c6(%rip),%rbp        # 40f0ed <_IO_stdin_used+0xed>
  402b27:	4c 89 ef             	mov    %r13,%rdi
  402b2a:	48 89 ee             	mov    %rbp,%rsi
  402b2d:	31 d2                	xor    %edx,%edx
  402b2f:	31 c0                	xor    %eax,%eax
  402b31:	e8 da ac 00 00       	call   40d810 <ft_sprintf>
		sprites[i] = sprite(game, buf);
  402b36:	4c 89 e7             	mov    %r12,%rdi
  402b39:	4c 89 ee             	mov    %r13,%rsi
  402b3c:	e8 7f 1a 00 00       	call   4045c0 <sprite>
  402b41:	48 89 03             	mov    %rax,(%rbx)
		ft_sprintf(buf, name, i);
  402b44:	4c 89 ef             	mov    %r13,%rdi
  402b47:	48 89 ee             	mov    %rbp,%rsi
  402b4a:	ba 01 00 00 00       	mov    $0x1,%edx
  402b4f:	31 c0                	xor    %eax,%eax
  402b51:	e8 ba ac 00 00       	call   40d810 <ft_sprintf>
		sprites[i] = sprite(game, buf);
  402b56:	4c 89 e7             	mov    %r12,%rdi
  402b59:	4c 89 ee             	mov    %r13,%rsi
  402b5c:	e8 5f 1a 00 00       	call   4045c0 <sprite>
  402b61:	48 89 43 08          	mov    %rax,0x8(%rbx)
		ft_sprintf(buf, name, i);
  402b65:	4c 89 ef             	mov    %r13,%rdi
  402b68:	48 89 ee             	mov    %rbp,%rsi
  402b6b:	ba 02 00 00 00       	mov    $0x2,%edx
  402b70:	31 c0                	xor    %eax,%eax
  402b72:	e8 99 ac 00 00       	call   40d810 <ft_sprintf>
		sprites[i] = sprite(game, buf);
  402b77:	4c 89 e7             	mov    %r12,%rdi
  402b7a:	4c 89 ee             	mov    %r13,%rsi
  402b7d:	e8 3e 1a 00 00       	call   4045c0 <sprite>
  402b82:	48 89 43 10          	mov    %rax,0x10(%rbx)
		ft_sprintf(buf, name, i);
  402b86:	4c 89 ef             	mov    %r13,%rdi
  402b89:	48 89 ee             	mov    %rbp,%rsi
  402b8c:	ba 03 00 00 00       	mov    $0x3,%edx
  402b91:	31 c0                	xor    %eax,%eax
  402b93:	e8 78 ac 00 00       	call   40d810 <ft_sprintf>
		sprites[i] = sprite(game, buf);
  402b98:	4c 89 e7             	mov    %r12,%rdi
  402b9b:	4c 89 ee             	mov    %r13,%rsi
  402b9e:	e8 1d 1a 00 00       	call   4045c0 <sprite>
  402ba3:	48 89 43 18          	mov    %rax,0x18(%rbx)
		ft_sprintf(buf, name, i);
  402ba7:	4c 89 ef             	mov    %r13,%rdi
  402baa:	48 89 ee             	mov    %rbp,%rsi
  402bad:	ba 04 00 00 00       	mov    $0x4,%edx
  402bb2:	31 c0                	xor    %eax,%eax
  402bb4:	e8 57 ac 00 00       	call   40d810 <ft_sprintf>
		sprites[i] = sprite(game, buf);
  402bb9:	4c 89 e7             	mov    %r12,%rdi
  402bbc:	4c 89 ee             	mov    %r13,%rsi
  402bbf:	e8 fc 19 00 00       	call   4045c0 <sprite>
  402bc4:	48 89 43 20          	mov    %rax,0x20(%rbx)
		ft_sprintf(buf, name, i);
  402bc8:	4c 89 ef             	mov    %r13,%rdi
  402bcb:	48 89 ee             	mov    %rbp,%rsi
  402bce:	ba 05 00 00 00       	mov    $0x5,%edx
  402bd3:	31 c0                	xor    %eax,%eax
  402bd5:	e8 36 ac 00 00       	call   40d810 <ft_sprintf>
		sprites[i] = sprite(game, buf);
  402bda:	4c 89 e7             	mov    %r12,%rdi
  402bdd:	4c 89 ee             	mov    %r13,%rsi
  402be0:	e8 db 19 00 00       	call   4045c0 <sprite>
  402be5:	48 89 43 28          	mov    %rax,0x28(%rbx)
	g->goblin2_atk_side = _load_frames(g,
  402be9:	48 89 9c 24 80 03 00 	mov    %rbx,0x380(%rsp)
  402bf0:	00 
	sprites = malloc(sizeof(t_img) * size);
  402bf1:	bf 10 02 00 00       	mov    $0x210,%edi
  402bf6:	e8 15 f5 ff ff       	call   402110 <malloc@plt>
  402bfb:	48 89 c3             	mov    %rax,%rbx
		ft_sprintf(buf, name, i);
  402bfe:	48 8d 2d 0d c5 00 00 	lea    0xc50d(%rip),%rbp        # 40f112 <_IO_stdin_used+0x112>
  402c05:	4c 89 ef             	mov    %r13,%rdi
  402c08:	48 89 ee             	mov    %rbp,%rsi
  402c0b:	31 d2                	xor    %edx,%edx
  402c0d:	31 c0                	xor    %eax,%eax
  402c0f:	e8 fc ab 00 00       	call   40d810 <ft_sprintf>
		sprites[i] = sprite(game, buf);
  402c14:	4c 89 e7             	mov    %r12,%rdi
  402c17:	4c 89 ee             	mov    %r13,%rsi
  402c1a:	e8 a1 19 00 00       	call   4045c0 <sprite>
  402c1f:	48 89 03             	mov    %rax,(%rbx)
		ft_sprintf(buf, name, i);
  402c22:	4c 89 ef             	mov    %r13,%rdi
  402c25:	48 89 ee             	mov    %rbp,%rsi
  402c28:	ba 01 00 00 00       	mov    $0x1,%edx
  402c2d:	31 c0                	xor    %eax,%eax
  402c2f:	e8 dc ab 00 00       	call   40d810 <ft_sprintf>
		sprites[i] = sprite(game, buf);
  402c34:	4c 89 e7             	mov    %r12,%rdi
  402c37:	4c 89 ee             	mov    %r13,%rsi
  402c3a:	e8 81 19 00 00       	call   4045c0 <sprite>
  402c3f:	48 89 43 08          	mov    %rax,0x8(%rbx)
		ft_sprintf(buf, name, i);
  402c43:	4c 89 ef             	mov    %r13,%rdi
  402c46:	48 89 ee             	mov    %rbp,%rsi
  402c49:	ba 02 00 00 00       	mov    $0x2,%edx
  402c4e:	31 c0                	xor    %eax,%eax
  402c50:	e8 bb ab 00 00       	call   40d810 <ft_sprintf>
		sprites[i] = sprite(game, buf);
  402c55:	4c 89 e7             	mov    %r12,%rdi
  402c58:	4c 89 ee             	mov    %r13,%rsi
  402c5b:	e8 60 19 00 00       	call   4045c0 <sprite>
  402c60:	48 89 43 10          	mov    %rax,0x10(%rbx)
		ft_sprintf(buf, name, i);
  402c64:	4c 89 ef             	mov    %r13,%rdi
  402c67:	48 89 ee             	mov    %rbp,%rsi
  402c6a:	ba 03 00 00 00       	mov    $0x3,%edx
  402c6f:	31 c0                	xor    %eax,%eax
  402c71:	e8 9a ab 00 00       	call   40d810 <ft_sprintf>
		sprites[i] = sprite(game, buf);
  402c76:	4c 89 e7             	mov    %r12,%rdi
  402c79:	4c 89 ee             	mov    %r13,%rsi
  402c7c:	e8 3f 19 00 00       	call   4045c0 <sprite>
  402c81:	48 89 43 18          	mov    %rax,0x18(%rbx)
		ft_sprintf(buf, name, i);
  402c85:	4c 89 ef             	mov    %r13,%rdi
  402c88:	48 89 ee             	mov    %rbp,%rsi
  402c8b:	ba 04 00 00 00       	mov    $0x4,%edx
  402c90:	31 c0                	xor    %eax,%eax
  402c92:	e8 79 ab 00 00       	call   40d810 <ft_sprintf>
		sprites[i] = sprite(game, buf);
  402c97:	4c 89 e7             	mov    %r12,%rdi
  402c9a:	4c 89 ee             	mov    %r13,%rsi
  402c9d:	e8 1e 19 00 00       	call   4045c0 <sprite>
  402ca2:	48 89 43 20          	mov    %rax,0x20(%rbx)
		ft_sprintf(buf, name, i);
  402ca6:	4c 89 ef             	mov    %r13,%rdi
  402ca9:	48 89 ee             	mov    %rbp,%rsi
  402cac:	ba 05 00 00 00       	mov    $0x5,%edx
  402cb1:	31 c0                	xor    %eax,%eax
  402cb3:	e8 58 ab 00 00       	call   40d810 <ft_sprintf>
		sprites[i] = sprite(game, buf);
  402cb8:	4c 89 e7             	mov    %r12,%rdi
  402cbb:	4c 89 ee             	mov    %r13,%rsi
  402cbe:	e8 fd 18 00 00       	call   4045c0 <sprite>
  402cc3:	48 89 43 28          	mov    %rax,0x28(%rbx)
	g->warrior_idle = _load_frames(g, "textures/gen/Warrior_Idle/%d.xpm", 6);
  402cc7:	48 89 9c 24 90 03 00 	mov    %rbx,0x390(%rsp)
  402cce:	00 
	sprites = malloc(sizeof(t_img) * size);
  402ccf:	bf 10 02 00 00       	mov    $0x210,%edi
  402cd4:	e8 37 f4 ff ff       	call   402110 <malloc@plt>
  402cd9:	48 89 c3             	mov    %rax,%rbx
		ft_sprintf(buf, name, i);
  402cdc:	48 8d 2d 50 c4 00 00 	lea    0xc450(%rip),%rbp        # 40f133 <_IO_stdin_used+0x133>
  402ce3:	4c 89 ef             	mov    %r13,%rdi
  402ce6:	48 89 ee             	mov    %rbp,%rsi
  402ce9:	31 d2                	xor    %edx,%edx
  402ceb:	31 c0                	xor    %eax,%eax
  402ced:	e8 1e ab 00 00       	call   40d810 <ft_sprintf>
		sprites[i] = sprite(game, buf);
  402cf2:	4c 89 e7             	mov    %r12,%rdi
  402cf5:	4c 89 ee             	mov    %r13,%rsi
  402cf8:	e8 c3 18 00 00       	call   4045c0 <sprite>
  402cfd:	48 89 03             	mov    %rax,(%rbx)
		ft_sprintf(buf, name, i);
  402d00:	4c 89 ef             	mov    %r13,%rdi
  402d03:	48 89 ee             	mov    %rbp,%rsi
  402d06:	ba 01 00 00 00       	mov    $0x1,%edx
  402d0b:	31 c0                	xor    %eax,%eax
  402d0d:	e8 fe aa 00 00       	call   40d810 <ft_sprintf>
		sprites[i] = sprite(game, buf);
  402d12:	4c 89 e7             	mov    %r12,%rdi
  402d15:	4c 89 ee             	mov    %r13,%rsi
  402d18:	e8 a3 18 00 00       	call   4045c0 <sprite>
  402d1d:	48 89 43 08          	mov    %rax,0x8(%rbx)
		ft_sprintf(buf, name, i);
  402d21:	4c 89 ef             	mov    %r13,%rdi
  402d24:	48 89 ee             	mov    %rbp,%rsi
  402d27:	ba 02 00 00 00       	mov    $0x2,%edx
  402d2c:	31 c0                	xor    %eax,%eax
  402d2e:	e8 dd aa 00 00       	call   40d810 <ft_sprintf>
		sprites[i] = sprite(game, buf);
  402d33:	4c 89 e7             	mov    %r12,%rdi
  402d36:	4c 89 ee             	mov    %r13,%rsi
  402d39:	e8 82 18 00 00       	call   4045c0 <sprite>
  402d3e:	48 89 43 10          	mov    %rax,0x10(%rbx)
		ft_sprintf(buf, name, i);
  402d42:	4c 89 ef             	mov    %r13,%rdi
  402d45:	48 89 ee             	mov    %rbp,%rsi
  402d48:	ba 03 00 00 00       	mov    $0x3,%edx
  402d4d:	31 c0                	xor    %eax,%eax
  402d4f:	e8 bc aa 00 00       	call   40d810 <ft_sprintf>
		sprites[i] = sprite(game, buf);
  402d54:	4c 89 e7             	mov    %r12,%rdi
  402d57:	4c 89 ee             	mov    %r13,%rsi
  402d5a:	e8 61 18 00 00       	call   4045c0 <sprite>
  402d5f:	48 89 43 18          	mov    %rax,0x18(%rbx)
		ft_sprintf(buf, name, i);
  402d63:	4c 89 ef             	mov    %r13,%rdi
  402d66:	48 89 ee             	mov    %rbp,%rsi
  402d69:	ba 04 00 00 00       	mov    $0x4,%edx
  402d6e:	31 c0                	xor    %eax,%eax
  402d70:	e8 9b aa 00 00       	call   40d810 <ft_sprintf>
		sprites[i] = sprite(game, buf);
  402d75:	4c 89 e7             	mov    %r12,%rdi
  402d78:	4c 89 ee             	mov    %r13,%rsi
  402d7b:	e8 40 18 00 00       	call   4045c0 <sprite>
  402d80:	48 89 43 20          	mov    %rax,0x20(%rbx)
		ft_sprintf(buf, name, i);
  402d84:	4c 89 ef             	mov    %r13,%rdi
  402d87:	48 89 ee             	mov    %rbp,%rsi
  402d8a:	ba 05 00 00 00       	mov    $0x5,%edx
  402d8f:	31 c0                	xor    %eax,%eax
  402d91:	e8 7a aa 00 00       	call   40d810 <ft_sprintf>
		sprites[i] = sprite(game, buf);
  402d96:	4c 89 e7             	mov    %r12,%rdi
  402d99:	4c 89 ee             	mov    %r13,%rsi
  402d9c:	e8 1f 18 00 00       	call   4045c0 <sprite>
  402da1:	48 89 43 28          	mov    %rax,0x28(%rbx)
	g->warrior_walk = _load_frames(g, "textures/gen/Warrior_Walk/%d.xpm", 6);
  402da5:	48 89 9c 24 88 03 00 	mov    %rbx,0x388(%rsp)
  402dac:	00 
	sprites = malloc(sizeof(t_img) * size);
  402dad:	bf 10 02 00 00       	mov    $0x210,%edi
  402db2:	e8 59 f3 ff ff       	call   402110 <malloc@plt>
  402db7:	48 89 c3             	mov    %rax,%rbx
		ft_sprintf(buf, name, i);
  402dba:	48 8d 2d 93 c3 00 00 	lea    0xc393(%rip),%rbp        # 40f154 <_IO_stdin_used+0x154>
  402dc1:	4c 89 ef             	mov    %r13,%rdi
  402dc4:	48 89 ee             	mov    %rbp,%rsi
  402dc7:	31 d2                	xor    %edx,%edx
  402dc9:	31 c0                	xor    %eax,%eax
  402dcb:	e8 40 aa 00 00       	call   40d810 <ft_sprintf>
		sprites[i] = sprite(game, buf);
  402dd0:	4c 89 e7             	mov    %r12,%rdi
  402dd3:	4c 89 ee             	mov    %r13,%rsi
  402dd6:	e8 e5 17 00 00       	call   4045c0 <sprite>
  402ddb:	48 89 03             	mov    %rax,(%rbx)
		ft_sprintf(buf, name, i);
  402dde:	4c 89 ef             	mov    %r13,%rdi
  402de1:	48 89 ee             	mov    %rbp,%rsi
  402de4:	ba 01 00 00 00       	mov    $0x1,%edx
  402de9:	31 c0                	xor    %eax,%eax
  402deb:	e8 20 aa 00 00       	call   40d810 <ft_sprintf>
		sprites[i] = sprite(game, buf);
  402df0:	4c 89 e7             	mov    %r12,%rdi
  402df3:	4c 89 ee             	mov    %r13,%rsi
  402df6:	e8 c5 17 00 00       	call   4045c0 <sprite>
  402dfb:	48 89 43 08          	mov    %rax,0x8(%rbx)
		ft_sprintf(buf, name, i);
  402dff:	4c 89 ef             	mov    %r13,%rdi
  402e02:	48 89 ee             	mov    %rbp,%rsi
  402e05:	ba 02 00 00 00       	mov    $0x2,%edx
  402e0a:	31 c0                	xor    %eax,%eax
  402e0c:	e8 ff a9 00 00       	call   40d810 <ft_sprintf>
		sprites[i] = sprite(game, buf);
  402e11:	4c 89 e7             	mov    %r12,%rdi
  402e14:	4c 89 ee             	mov    %r13,%rsi
  402e17:	e8 a4 17 00 00       	call   4045c0 <sprite>
  402e1c:	48 89 43 10          	mov    %rax,0x10(%rbx)
		ft_sprintf(buf, name, i);
  402e20:	4c 89 ef             	mov    %r13,%rdi
  402e23:	48 89 ee             	mov    %rbp,%rsi
  402e26:	ba 03 00 00 00       	mov    $0x3,%edx
  402e2b:	31 c0                	xor    %eax,%eax
  402e2d:	e8 de a9 00 00       	call   40d810 <ft_sprintf>
		sprites[i] = sprite(game, buf);
  402e32:	4c 89 e7             	mov    %r12,%rdi
  402e35:	4c 89 ee             	mov    %r13,%rsi
  402e38:	e8 83 17 00 00       	call   4045c0 <sprite>
  402e3d:	48 89 43 18          	mov    %rax,0x18(%rbx)
		ft_sprintf(buf, name, i);
  402e41:	4c 89 ef             	mov    %r13,%rdi
  402e44:	48 89 ee             	mov    %rbp,%rsi
  402e47:	ba 04 00 00 00       	mov    $0x4,%edx
  402e4c:	31 c0                	xor    %eax,%eax
  402e4e:	e8 bd a9 00 00       	call   40d810 <ft_sprintf>
		sprites[i] = sprite(game, buf);
  402e53:	4c 89 e7             	mov    %r12,%rdi
  402e56:	4c 89 ee             	mov    %r13,%rsi
  402e59:	e8 62 17 00 00       	call   4045c0 <sprite>
  402e5e:	48 89 43 20          	mov    %rax,0x20(%rbx)
		ft_sprintf(buf, name, i);
  402e62:	4c 89 ef             	mov    %r13,%rdi
  402e65:	48 89 ee             	mov    %rbp,%rsi
  402e68:	ba 05 00 00 00       	mov    $0x5,%edx
  402e6d:	31 c0                	xor    %eax,%eax
  402e6f:	e8 9c a9 00 00       	call   40d810 <ft_sprintf>
		sprites[i] = sprite(game, buf);
  402e74:	4c 89 e7             	mov    %r12,%rdi
  402e77:	4c 89 ee             	mov    %r13,%rsi
  402e7a:	e8 41 17 00 00       	call   4045c0 <sprite>
  402e7f:	48 89 43 28          	mov    %rax,0x28(%rbx)
	g->warrior_atk_side = _load_frames(g,
  402e83:	48 89 9c 24 98 03 00 	mov    %rbx,0x398(%rsp)
  402e8a:	00 
	sprites = malloc(sizeof(t_img) * size);
  402e8b:	bf 68 02 00 00       	mov    $0x268,%edi
  402e90:	e8 7b f2 ff ff       	call   402110 <malloc@plt>
  402e95:	48 89 c3             	mov    %rax,%rbx
		ft_sprintf(buf, name, i);
  402e98:	48 8d 2d db c2 00 00 	lea    0xc2db(%rip),%rbp        # 40f17a <_IO_stdin_used+0x17a>
  402e9f:	4c 89 ef             	mov    %r13,%rdi
  402ea2:	48 89 ee             	mov    %rbp,%rsi
  402ea5:	31 d2                	xor    %edx,%edx
  402ea7:	31 c0                	xor    %eax,%eax
  402ea9:	e8 62 a9 00 00       	call   40d810 <ft_sprintf>
		sprites[i] = sprite(game, buf);
  402eae:	4c 89 e7             	mov    %r12,%rdi
  402eb1:	4c 89 ee             	mov    %r13,%rsi
  402eb4:	e8 07 17 00 00       	call   4045c0 <sprite>
  402eb9:	48 89 03             	mov    %rax,(%rbx)
		ft_sprintf(buf, name, i);
  402ebc:	4c 89 ef             	mov    %r13,%rdi
  402ebf:	48 89 ee             	mov    %rbp,%rsi
  402ec2:	ba 01 00 00 00       	mov    $0x1,%edx
  402ec7:	31 c0                	xor    %eax,%eax
  402ec9:	e8 42 a9 00 00       	call   40d810 <ft_sprintf>
		sprites[i] = sprite(game, buf);
  402ece:	4c 89 e7             	mov    %r12,%rdi
  402ed1:	4c 89 ee             	mov    %r13,%rsi
  402ed4:	e8 e7 16 00 00       	call   4045c0 <sprite>
  402ed9:	48 89 43 08          	mov    %rax,0x8(%rbx)
		ft_sprintf(buf, name, i);
  402edd:	4c 89 ef             	mov    %r13,%rdi
  402ee0:	48 89 ee             	mov    %rbp,%rsi
  402ee3:	ba 02 00 00 00       	mov    $0x2,%edx
  402ee8:	31 c0                	xor    %eax,%eax
  402eea:	e8 21 a9 00 00       	call   40d810 <ft_sprintf>
		sprites[i] = sprite(game, buf);
  402eef:	4c 89 e7             	mov    %r12,%rdi
  402ef2:	4c 89 ee             	mov    %r13,%rsi
  402ef5:	e8 c6 16 00 00       	call   4045c0 <sprite>
  402efa:	48 89 43 10          	mov    %rax,0x10(%rbx)
		ft_sprintf(buf, name, i);
  402efe:	4c 89 ef             	mov    %r13,%rdi
  402f01:	48 89 ee             	mov    %rbp,%rsi
  402f04:	ba 03 00 00 00       	mov    $0x3,%edx
  402f09:	31 c0                	xor    %eax,%eax
  402f0b:	e8 00 a9 00 00       	call   40d810 <ft_sprintf>
		sprites[i] = sprite(game, buf);
  402f10:	4c 89 e7             	mov    %r12,%rdi
  402f13:	4c 89 ee             	mov    %r13,%rsi
  402f16:	e8 a5 16 00 00       	call   4045c0 <sprite>
  402f1b:	48 89 43 18          	mov    %rax,0x18(%rbx)
		ft_sprintf(buf, name, i);
  402f1f:	4c 89 ef             	mov    %r13,%rdi
  402f22:	48 89 ee             	mov    %rbp,%rsi
  402f25:	ba 04 00 00 00       	mov    $0x4,%edx
  402f2a:	31 c0                	xor    %eax,%eax
  402f2c:	e8 df a8 00 00       	call   40d810 <ft_sprintf>
		sprites[i] = sprite(game, buf);
  402f31:	4c 89 e7             	mov    %r12,%rdi
  402f34:	4c 89 ee             	mov    %r13,%rsi
  402f37:	e8 84 16 00 00       	call   4045c0 <sprite>
  402f3c:	48 89 43 20          	mov    %rax,0x20(%rbx)
		ft_sprintf(buf, name, i);
  402f40:	4c 89 ef             	mov    %r13,%rdi
  402f43:	48 89 ee             	mov    %rbp,%rsi
  402f46:	ba 05 00 00 00       	mov    $0x5,%edx
  402f4b:	31 c0                	xor    %eax,%eax
  402f4d:	e8 be a8 00 00       	call   40d810 <ft_sprintf>
		sprites[i] = sprite(game, buf);
  402f52:	4c 89 e7             	mov    %r12,%rdi
  402f55:	4c 89 ee             	mov    %r13,%rsi
  402f58:	e8 63 16 00 00       	call   4045c0 <sprite>
  402f5d:	48 89 43 28          	mov    %rax,0x28(%rbx)
		ft_sprintf(buf, name, i);
  402f61:	4c 89 ef             	mov    %r13,%rdi
  402f64:	48 89 ee             	mov    %rbp,%rsi
  402f67:	ba 06 00 00 00       	mov    $0x6,%edx
  402f6c:	31 c0                	xor    %eax,%eax
  402f6e:	e8 9d a8 00 00       	call   40d810 <ft_sprintf>
		sprites[i] = sprite(game, buf);
  402f73:	4c 89 e7             	mov    %r12,%rdi
  402f76:	4c 89 ee             	mov    %r13,%rsi
  402f79:	e8 42 16 00 00       	call   4045c0 <sprite>
  402f7e:	48 89 43 30          	mov    %rax,0x30(%rbx)
	g->money_spawn = _load_frames(g, "textures/gen/Gold_Spawn/%d.xpm", 7);
  402f82:	48 89 9c 24 a0 03 00 	mov    %rbx,0x3a0(%rsp)
  402f89:	00 
	sprites = malloc(sizeof(t_img) * size);
  402f8a:	bf c0 02 00 00       	mov    $0x2c0,%edi
  402f8f:	e8 7c f1 ff ff       	call   402110 <malloc@plt>
  402f94:	48 89 c3             	mov    %rax,%rbx
		ft_sprintf(buf, name, i);
  402f97:	48 8d 2d fb c1 00 00 	lea    0xc1fb(%rip),%rbp        # 40f199 <_IO_stdin_used+0x199>
  402f9e:	4c 89 ef             	mov    %r13,%rdi
  402fa1:	48 89 ee             	mov    %rbp,%rsi
  402fa4:	31 d2                	xor    %edx,%edx
  402fa6:	31 c0                	xor    %eax,%eax
  402fa8:	e8 63 a8 00 00       	call   40d810 <ft_sprintf>
		sprites[i] = sprite(game, buf);
  402fad:	4c 89 e7             	mov    %r12,%rdi
  402fb0:	4c 89 ee             	mov    %r13,%rsi
  402fb3:	e8 08 16 00 00       	call   4045c0 <sprite>
  402fb8:	48 89 03             	mov    %rax,(%rbx)
		ft_sprintf(buf, name, i);
  402fbb:	4c 89 ef             	mov    %r13,%rdi
  402fbe:	48 89 ee             	mov    %rbp,%rsi
  402fc1:	ba 01 00 00 00       	mov    $0x1,%edx
  402fc6:	31 c0                	xor    %eax,%eax
  402fc8:	e8 43 a8 00 00       	call   40d810 <ft_sprintf>
		sprites[i] = sprite(game, buf);
  402fcd:	4c 89 e7             	mov    %r12,%rdi
  402fd0:	4c 89 ee             	mov    %r13,%rsi
  402fd3:	e8 e8 15 00 00       	call   4045c0 <sprite>
  402fd8:	48 89 43 08          	mov    %rax,0x8(%rbx)
		ft_sprintf(buf, name, i);
  402fdc:	4c 89 ef             	mov    %r13,%rdi
  402fdf:	48 89 ee             	mov    %rbp,%rsi
  402fe2:	ba 02 00 00 00       	mov    $0x2,%edx
  402fe7:	31 c0                	xor    %eax,%eax
  402fe9:	e8 22 a8 00 00       	call   40d810 <ft_sprintf>
		sprites[i] = sprite(game, buf);
  402fee:	4c 89 e7             	mov    %r12,%rdi
  402ff1:	4c 89 ee             	mov    %r13,%rsi
  402ff4:	e8 c7 15 00 00       	call   4045c0 <sprite>
  402ff9:	48 89 43 10          	mov    %rax,0x10(%rbx)
		ft_sprintf(buf, name, i);
  402ffd:	4c 89 ef             	mov    %r13,%rdi
  403000:	48 89 ee             	mov    %rbp,%rsi
  403003:	ba 03 00 00 00       	mov    $0x3,%edx
  403008:	31 c0                	xor    %eax,%eax
  40300a:	e8 01 a8 00 00       	call   40d810 <ft_sprintf>
		sprites[i] = sprite(game, buf);
  40300f:	4c 89 e7             	mov    %r12,%rdi
  403012:	4c 89 ee             	mov    %r13,%rsi
  403015:	e8 a6 15 00 00       	call   4045c0 <sprite>
  40301a:	48 89 43 18          	mov    %rax,0x18(%rbx)
		ft_sprintf(buf, name, i);
  40301e:	4c 89 ef             	mov    %r13,%rdi
  403021:	48 89 ee             	mov    %rbp,%rsi
  403024:	ba 04 00 00 00       	mov    $0x4,%edx
  403029:	31 c0                	xor    %eax,%eax
  40302b:	e8 e0 a7 00 00       	call   40d810 <ft_sprintf>
		sprites[i] = sprite(game, buf);
  403030:	4c 89 e7             	mov    %r12,%rdi
  403033:	4c 89 ee             	mov    %r13,%rsi
  403036:	e8 85 15 00 00       	call   4045c0 <sprite>
  40303b:	48 89 43 20          	mov    %rax,0x20(%rbx)
		ft_sprintf(buf, name, i);
  40303f:	4c 89 ef             	mov    %r13,%rdi
  403042:	48 89 ee             	mov    %rbp,%rsi
  403045:	ba 05 00 00 00       	mov    $0x5,%edx
  40304a:	31 c0                	xor    %eax,%eax
  40304c:	e8 bf a7 00 00       	call   40d810 <ft_sprintf>
		sprites[i] = sprite(game, buf);
  403051:	4c 89 e7             	mov    %r12,%rdi
  403054:	4c 89 ee             	mov    %r13,%rsi
  403057:	e8 64 15 00 00       	call   4045c0 <sprite>
  40305c:	48 89 43 28          	mov    %rax,0x28(%rbx)
		ft_sprintf(buf, name, i);
  403060:	4c 89 ef             	mov    %r13,%rdi
  403063:	48 89 ee             	mov    %rbp,%rsi
  403066:	ba 06 00 00 00       	mov    $0x6,%edx
  40306b:	31 c0                	xor    %eax,%eax
  40306d:	e8 9e a7 00 00       	call   40d810 <ft_sprintf>
		sprites[i] = sprite(game, buf);
  403072:	4c 89 e7             	mov    %r12,%rdi
  403075:	4c 89 ee             	mov    %r13,%rsi
  403078:	e8 43 15 00 00       	call   4045c0 <sprite>
  40307d:	48 89 43 30          	mov    %rax,0x30(%rbx)
		ft_sprintf(buf, name, i);
  403081:	4c 89 ef             	mov    %r13,%rdi
  403084:	48 89 ee             	mov    %rbp,%rsi
  403087:	ba 07 00 00 00       	mov    $0x7,%edx
  40308c:	31 c0                	xor    %eax,%eax
  40308e:	e8 7d a7 00 00       	call   40d810 <ft_sprintf>
		sprites[i] = sprite(game, buf);
  403093:	4c 89 e7             	mov    %r12,%rdi
  403096:	4c 89 ee             	mov    %r13,%rsi
  403099:	e8 22 15 00 00       	call   4045c0 <sprite>
  40309e:	48 89 43 38          	mov    %rax,0x38(%rbx)
	g->foam = _load_frames(g, "textures/gen/Foam/%d.xpm", 8);
  4030a2:	48 89 9c 24 a8 03 00 	mov    %rbx,0x3a8(%rsp)
  4030a9:	00 
	g->foam_anim = anim_new(g->foam, 8, 100, true);
  4030aa:	be 08 00 00 00       	mov    $0x8,%esi
  4030af:	48 89 df             	mov    %rbx,%rdi
  4030b2:	ba 64 00 00 00       	mov    $0x64,%edx
  4030b7:	b9 01 00 00 00       	mov    $0x1,%ecx
  4030bc:	e8 cf 35 00 00       	call   406690 <anim_new>
  4030c1:	48 89 84 24 48 03 00 	mov    %rax,0x348(%rsp)
  4030c8:	00 
	sprites = malloc(sizeof(t_img) * size);
  4030c9:	bf 18 03 00 00       	mov    $0x318,%edi
  4030ce:	e8 3d f0 ff ff       	call   402110 <malloc@plt>
  4030d3:	48 89 c3             	mov    %rax,%rbx
		ft_sprintf(buf, name, i);
  4030d6:	48 8d 2d d5 c0 00 00 	lea    0xc0d5(%rip),%rbp        # 40f1b2 <_IO_stdin_used+0x1b2>
  4030dd:	4c 89 ef             	mov    %r13,%rdi
  4030e0:	48 89 ee             	mov    %rbp,%rsi
  4030e3:	31 d2                	xor    %edx,%edx
  4030e5:	31 c0                	xor    %eax,%eax
  4030e7:	e8 24 a7 00 00       	call   40d810 <ft_sprintf>
		sprites[i] = sprite(game, buf);
  4030ec:	4c 89 e7             	mov    %r12,%rdi
  4030ef:	4c 89 ee             	mov    %r13,%rsi
  4030f2:	e8 c9 14 00 00       	call   4045c0 <sprite>
  4030f7:	48 89 03             	mov    %rax,(%rbx)
		ft_sprintf(buf, name, i);
  4030fa:	4c 89 ef             	mov    %r13,%rdi
  4030fd:	48 89 ee             	mov    %rbp,%rsi
  403100:	ba 01 00 00 00       	mov    $0x1,%edx
  403105:	31 c0                	xor    %eax,%eax
  403107:	e8 04 a7 00 00       	call   40d810 <ft_sprintf>
		sprites[i] = sprite(game, buf);
  40310c:	4c 89 e7             	mov    %r12,%rdi
  40310f:	4c 89 ee             	mov    %r13,%rsi
  403112:	e8 a9 14 00 00       	call   4045c0 <sprite>
  403117:	48 89 43 08          	mov    %rax,0x8(%rbx)
		ft_sprintf(buf, name, i);
  40311b:	4c 89 ef             	mov    %r13,%rdi
  40311e:	48 89 ee             	mov    %rbp,%rsi
  403121:	ba 02 00 00 00       	mov    $0x2,%edx
  403126:	31 c0                	xor    %eax,%eax
  403128:	e8 e3 a6 00 00       	call   40d810 <ft_sprintf>
		sprites[i] = sprite(game, buf);
  40312d:	4c 89 e7             	mov    %r12,%rdi
  403130:	4c 89 ee             	mov    %r13,%rsi
  403133:	e8 88 14 00 00       	call   4045c0 <sprite>
  403138:	48 89 43 10          	mov    %rax,0x10(%rbx)
		ft_sprintf(buf, name, i);
  40313c:	4c 89 ef             	mov    %r13,%rdi
  40313f:	48 89 ee             	mov    %rbp,%rsi
  403142:	ba 03 00 00 00       	mov    $0x3,%edx
  403147:	31 c0                	xor    %eax,%eax
  403149:	e8 c2 a6 00 00       	call   40d810 <ft_sprintf>
		sprites[i] = sprite(game, buf);
  40314e:	4c 89 e7             	mov    %r12,%rdi
  403151:	4c 89 ee             	mov    %r13,%rsi
  403154:	e8 67 14 00 00       	call   4045c0 <sprite>
  403159:	48 89 43 18          	mov    %rax,0x18(%rbx)
		ft_sprintf(buf, name, i);
  40315d:	4c 89 ef             	mov    %r13,%rdi
  403160:	48 89 ee             	mov    %rbp,%rsi
  403163:	ba 04 00 00 00       	mov    $0x4,%edx
  403168:	31 c0                	xor    %eax,%eax
  40316a:	e8 a1 a6 00 00       	call   40d810 <ft_sprintf>
		sprites[i] = sprite(game, buf);
  40316f:	4c 89 e7             	mov    %r12,%rdi
  403172:	4c 89 ee             	mov    %r13,%rsi
  403175:	e8 46 14 00 00       	call   4045c0 <sprite>
  40317a:	48 89 43 20          	mov    %rax,0x20(%rbx)
		ft_sprintf(buf, name, i);
  40317e:	4c 89 ef             	mov    %r13,%rdi
  403181:	48 89 ee             	mov    %rbp,%rsi
  403184:	ba 05 00 00 00       	mov    $0x5,%edx
  403189:	31 c0                	xor    %eax,%eax
  40318b:	e8 80 a6 00 00       	call   40d810 <ft_sprintf>
		sprites[i] = sprite(game, buf);
  403190:	4c 89 e7             	mov    %r12,%rdi
  403193:	4c 89 ee             	mov    %r13,%rsi
  403196:	e8 25 14 00 00       	call   4045c0 <sprite>
  40319b:	48 89 43 28          	mov    %rax,0x28(%rbx)
		ft_sprintf(buf, name, i);
  40319f:	4c 89 ef             	mov    %r13,%rdi
  4031a2:	48 89 ee             	mov    %rbp,%rsi
  4031a5:	ba 06 00 00 00       	mov    $0x6,%edx
  4031aa:	31 c0                	xor    %eax,%eax
  4031ac:	e8 5f a6 00 00       	call   40d810 <ft_sprintf>
		sprites[i] = sprite(game, buf);
  4031b1:	4c 89 e7             	mov    %r12,%rdi
  4031b4:	4c 89 ee             	mov    %r13,%rsi
  4031b7:	e8 04 14 00 00       	call   4045c0 <sprite>
  4031bc:	48 89 43 30          	mov    %rax,0x30(%rbx)
		ft_sprintf(buf, name, i);
  4031c0:	4c 89 ef             	mov    %r13,%rdi
  4031c3:	48 89 ee             	mov    %rbp,%rsi
  4031c6:	ba 07 00 00 00       	mov    $0x7,%edx
  4031cb:	31 c0                	xor    %eax,%eax
  4031cd:	e8 3e a6 00 00       	call   40d810 <ft_sprintf>
		sprites[i] = sprite(game, buf);
  4031d2:	4c 89 e7             	mov    %r12,%rdi
  4031d5:	4c 89 ee             	mov    %r13,%rsi
  4031d8:	e8 e3 13 00 00       	call   4045c0 <sprite>
  4031dd:	48 89 43 38          	mov    %rax,0x38(%rbx)
		ft_sprintf(buf, name, i);
  4031e1:	4c 89 ef             	mov    %r13,%rdi
  4031e4:	48 89 ee             	mov    %rbp,%rsi
  4031e7:	ba 08 00 00 00       	mov    $0x8,%edx
  4031ec:	31 c0                	xor    %eax,%eax
  4031ee:	e8 1d a6 00 00       	call   40d810 <ft_sprintf>
		sprites[i] = sprite(game, buf);
  4031f3:	4c 89 e7             	mov    %r12,%rdi
  4031f6:	4c 89 ee             	mov    %r13,%rsi
  4031f9:	e8 c2 13 00 00       	call   4045c0 <sprite>
  4031fe:	48 89 43 40          	mov    %rax,0x40(%rbx)
	g->explosion = _load_frames(g, "textures/gen/Explosion/%d.xpm", 9);
  403202:	48 89 9c 24 b0 03 00 	mov    %rbx,0x3b0(%rsp)
  403209:	00 
	init_end(g);
  40320a:	4c 89 e7             	mov    %r12,%rdi
  40320d:	e8 ee 2d 00 00       	call   406000 <init_end>
		return (0);
	game.map2 = map2_load(&game, argv + 1, argc - 1);
  403212:	49 83 c6 08          	add    $0x8,%r14
  403216:	41 83 c7 ff          	add    $0xffffffff,%r15d
  40321a:	48 8d 7c 24 08       	lea    0x8(%rsp),%rdi
  40321f:	4c 89 f6             	mov    %r14,%rsi
  403222:	44 89 fa             	mov    %r15d,%edx
  403225:	e8 06 41 00 00       	call   407330 <map2_load>
  40322a:	48 89 44 24 58       	mov    %rax,0x58(%rsp)
	if (!game.map2)
  40322f:	48 85 c0             	test   %rax,%rax
  403232:	0f 84 f0 00 00 00    	je     403328 <main+0xd88>
		return (ft_printf("Error\nInvalid map\n"), _clean(&game), 1);
	game.camera_pos.x = game.map2->width * 64 / 2;
  403238:	8b 48 0c             	mov    0xc(%rax),%ecx
  40323b:	c1 e1 05             	shl    $0x5,%ecx
  40323e:	89 8c 24 7c 01 00 00 	mov    %ecx,0x17c(%rsp)
	game.camera_pos.y = game.map2->height * 64 / 2;
  403245:	8b 40 10             	mov    0x10(%rax),%eax
  403248:	c1 e0 05             	shl    $0x5,%eax
  40324b:	89 84 24 80 01 00 00 	mov    %eax,0x180(%rsp)
	game.menu = menu_new();
  403252:	e8 d9 1d 00 00       	call   405030 <menu_new>
  403257:	48 89 44 24 68       	mov    %rax,0x68(%rsp)
	game.menu_opened = true;
  40325c:	c6 44 24 70 01       	movb   $0x1,0x70(%rsp)
	if (BONUS)
		srand(getms());
	mlx_do_key_autorepeatoff(game.mlx);
  403261:	48 8b 7c 24 08       	mov    0x8(%rsp),%rdi
  403266:	e8 45 9d 00 00       	call   40cfb0 <mlx_do_key_autorepeatoff>
	mlx_hook(game.win, KeyPress, KeyPressMask, key_pressed_hook, &game);
  40326b:	48 8b 7c 24 10       	mov    0x10(%rsp),%rdi
  403270:	48 c7 c1 f0 44 40 00 	mov    $0x4044f0,%rcx
  403277:	48 8d 6c 24 08       	lea    0x8(%rsp),%rbp
  40327c:	be 02 00 00 00       	mov    $0x2,%esi
  403281:	ba 01 00 00 00       	mov    $0x1,%edx
  403286:	49 89 e8             	mov    %rbp,%r8
  403289:	e8 02 9d 00 00       	call   40cf90 <mlx_hook>
	mlx_hook(game.win, KeyRelease, KeyReleaseMask, key_released_hook, &game);
  40328e:	48 8b 7c 24 10       	mov    0x10(%rsp),%rdi
  403293:	48 c7 c1 20 45 40 00 	mov    $0x404520,%rcx
  40329a:	be 03 00 00 00       	mov    $0x3,%esi
  40329f:	ba 02 00 00 00       	mov    $0x2,%edx
  4032a4:	49 89 e8             	mov    %rbp,%r8
  4032a7:	e8 e4 9c 00 00       	call   40cf90 <mlx_hook>
	mlx_hook(game.win, DestroyNotify, 0, close_hook, &game);
  4032ac:	48 8b 7c 24 10       	mov    0x10(%rsp),%rdi
  4032b1:	48 c7 c1 b0 45 40 00 	mov    $0x4045b0,%rcx
  4032b8:	31 db                	xor    %ebx,%ebx
  4032ba:	be 11 00 00 00       	mov    $0x11,%esi
  4032bf:	31 d2                	xor    %edx,%edx
  4032c1:	49 89 e8             	mov    %rbp,%r8
  4032c4:	e8 c7 9c 00 00       	call   40cf90 <mlx_hook>
	mlx_mouse_hook(game.win, mouse_hook, &game);
  4032c9:	48 8b 7c 24 10       	mov    0x10(%rsp),%rdi
  4032ce:	48 c7 c6 40 45 40 00 	mov    $0x404540,%rsi
  4032d5:	48 89 ea             	mov    %rbp,%rdx
  4032d8:	e8 23 84 00 00       	call   40b700 <mlx_mouse_hook>
	mlx_loop_hook(game.mlx, update_hook, &game);
  4032dd:	48 8b 7c 24 08       	mov    0x8(%rsp),%rdi
  4032e2:	48 c7 c6 f0 45 40 00 	mov    $0x4045f0,%rsi
  4032e9:	48 89 ea             	mov    %rbp,%rdx
  4032ec:	e8 2f 84 00 00       	call   40b720 <mlx_loop_hook>
	mlx_loop(game.mlx);
  4032f1:	48 8b 7c 24 08       	mov    0x8(%rsp),%rdi
  4032f6:	e8 85 82 00 00       	call   40b580 <mlx_loop>
	game_free(game);
  4032fb:	48 89 ef             	mov    %rbp,%rdi
  4032fe:	e8 8d 00 00 00       	call   403390 <game_free>
	mlx_do_key_autorepeaton(game->mlx);
  403303:	48 8b 7c 24 08       	mov    0x8(%rsp),%rdi
  403308:	e8 b3 9c 00 00       	call   40cfc0 <mlx_do_key_autorepeaton>
	mlx_destroy_window(game->mlx, game->win);
  40330d:	48 8b 7c 24 08       	mov    0x8(%rsp),%rdi
  403312:	48 8b 74 24 10       	mov    0x10(%rsp),%rsi
  403317:	e8 84 99 00 00       	call   40cca0 <mlx_destroy_window>
	mlx_destroy_display(game->mlx);
  40331c:	48 8b 7c 24 08       	mov    0x8(%rsp),%rdi
  403321:	e8 aa 9e 00 00       	call   40d1d0 <mlx_destroy_display>
  403326:	eb 44                	jmp    40336c <main+0xdcc>
		return (ft_printf("Error\nInvalid map\n"), _clean(&game), 1);
  403328:	48 8d 3d d5 bc 00 00 	lea    0xbcd5(%rip),%rdi        # 40f004 <_IO_stdin_used+0x4>
  40332f:	31 c0                	xor    %eax,%eax
  403331:	e8 1a a3 00 00       	call   40d650 <ft_printf>
  403336:	48 8d 7c 24 08       	lea    0x8(%rsp),%rdi
	game_free(game);
  40333b:	e8 50 00 00 00       	call   403390 <game_free>
	mlx_do_key_autorepeaton(game->mlx);
  403340:	48 8b 7c 24 08       	mov    0x8(%rsp),%rdi
  403345:	e8 76 9c 00 00       	call   40cfc0 <mlx_do_key_autorepeaton>
	mlx_destroy_window(game->mlx, game->win);
  40334a:	48 8b 7c 24 08       	mov    0x8(%rsp),%rdi
  40334f:	48 8b 74 24 10       	mov    0x10(%rsp),%rsi
  403354:	e8 47 99 00 00       	call   40cca0 <mlx_destroy_window>
	mlx_destroy_display(game->mlx);
  403359:	48 8b 7c 24 08       	mov    0x8(%rsp),%rdi
  40335e:	e8 6d 9e 00 00       	call   40d1d0 <mlx_destroy_display>
  403363:	bb 01 00 00 00       	mov    $0x1,%ebx
  403368:	eb 02                	jmp    40336c <main+0xdcc>
  40336a:	31 db                	xor    %ebx,%ebx
  40336c:	48 8b 7c 24 08       	mov    0x8(%rsp),%rdi
  403371:	e8 0a ee ff ff       	call   402180 <free@plt>
	_clean(&game);
}
  403376:	89 d8                	mov    %ebx,%eax
  403378:	48 81 c4 e8 07 00 00 	add    $0x7e8,%rsp
  40337f:	5b                   	pop    %rbx
  403380:	41 5c                	pop    %r12
  403382:	41 5d                	pop    %r13
  403384:	41 5e                	pop    %r14
  403386:	41 5f                	pop    %r15
  403388:	5d                   	pop    %rbp
  403389:	c3                   	ret    
  40338a:	66 0f 1f 44 00 00    	nopw   0x0(%rax,%rax,1)

0000000000403390 <game_free>:
		if (game->sprites[i])
			mlx_destroy_image(game->mlx, game->sprites[i]);
}

void	game_free(t_game *game)
{
  403390:	41 57                	push   %r15
  403392:	41 56                	push   %r14
  403394:	53                   	push   %rbx
  403395:	49 89 ff             	mov    %rdi,%r15
	unsigned int	i;

	if (game->rdr)
  403398:	48 8b 7f 30          	mov    0x30(%rdi),%rdi
  40339c:	48 85 ff             	test   %rdi,%rdi
  40339f:	74 05                	je     4033a6 <game_free+0x16>
		rdr_free(game->rdr);
  4033a1:	e8 7a 71 00 00       	call   40a520 <rdr_free>
	_free_anim(game, game->goblin_idle, 6);
  4033a6:	4d 8b b7 58 03 00 00 	mov    0x358(%r15),%r14
		if (sprites[i])
  4033ad:	49 8b 36             	mov    (%r14),%rsi
  4033b0:	48 85 f6             	test   %rsi,%rsi
  4033b3:	74 08                	je     4033bd <game_free+0x2d>
			mlx_destroy_image(game->mlx, sprites[i]);
  4033b5:	49 8b 3f             	mov    (%r15),%rdi
  4033b8:	e8 23 9c 00 00       	call   40cfe0 <mlx_destroy_image>
		if (sprites[i])
  4033bd:	49 8b 76 08          	mov    0x8(%r14),%rsi
  4033c1:	48 85 f6             	test   %rsi,%rsi
  4033c4:	74 08                	je     4033ce <game_free+0x3e>
			mlx_destroy_image(game->mlx, sprites[i]);
  4033c6:	49 8b 3f             	mov    (%r15),%rdi
  4033c9:	e8 12 9c 00 00       	call   40cfe0 <mlx_destroy_image>
		if (sprites[i])
  4033ce:	49 8b 76 10          	mov    0x10(%r14),%rsi
  4033d2:	48 85 f6             	test   %rsi,%rsi
  4033d5:	74 08                	je     4033df <game_free+0x4f>
			mlx_destroy_image(game->mlx, sprites[i]);
  4033d7:	49 8b 3f             	mov    (%r15),%rdi
  4033da:	e8 01 9c 00 00       	call   40cfe0 <mlx_destroy_image>
		if (sprites[i])
  4033df:	49 8b 76 18          	mov    0x18(%r14),%rsi
  4033e3:	48 85 f6             	test   %rsi,%rsi
  4033e6:	74 08                	je     4033f0 <game_free+0x60>
			mlx_destroy_image(game->mlx, sprites[i]);
  4033e8:	49 8b 3f             	mov    (%r15),%rdi
  4033eb:	e8 f0 9b 00 00       	call   40cfe0 <mlx_destroy_image>
		if (sprites[i])
  4033f0:	49 8b 76 20          	mov    0x20(%r14),%rsi
  4033f4:	48 85 f6             	test   %rsi,%rsi
  4033f7:	74 08                	je     403401 <game_free+0x71>
			mlx_destroy_image(game->mlx, sprites[i]);
  4033f9:	49 8b 3f             	mov    (%r15),%rdi
  4033fc:	e8 df 9b 00 00       	call   40cfe0 <mlx_destroy_image>
		if (sprites[i])
  403401:	49 8b 76 28          	mov    0x28(%r14),%rsi
  403405:	48 85 f6             	test   %rsi,%rsi
  403408:	74 08                	je     403412 <game_free+0x82>
			mlx_destroy_image(game->mlx, sprites[i]);
  40340a:	49 8b 3f             	mov    (%r15),%rdi
  40340d:	e8 ce 9b 00 00       	call   40cfe0 <mlx_destroy_image>
	free(sprites);
  403412:	4c 89 f7             	mov    %r14,%rdi
  403415:	e8 66 ed ff ff       	call   402180 <free@plt>
	_free_anim(game, game->goblin_walk, 6);
  40341a:	4d 8b b7 50 03 00 00 	mov    0x350(%r15),%r14
		if (sprites[i])
  403421:	49 8b 36             	mov    (%r14),%rsi
  403424:	48 85 f6             	test   %rsi,%rsi
  403427:	74 08                	je     403431 <game_free+0xa1>
			mlx_destroy_image(game->mlx, sprites[i]);
  403429:	49 8b 3f             	mov    (%r15),%rdi
  40342c:	e8 af 9b 00 00       	call   40cfe0 <mlx_destroy_image>
		if (sprites[i])
  403431:	49 8b 76 08          	mov    0x8(%r14),%rsi
  403435:	48 85 f6             	test   %rsi,%rsi
  403438:	74 08                	je     403442 <game_free+0xb2>
			mlx_destroy_image(game->mlx, sprites[i]);
  40343a:	49 8b 3f             	mov    (%r15),%rdi
  40343d:	e8 9e 9b 00 00       	call   40cfe0 <mlx_destroy_image>
		if (sprites[i])
  403442:	49 8b 76 10          	mov    0x10(%r14),%rsi
  403446:	48 85 f6             	test   %rsi,%rsi
  403449:	74 08                	je     403453 <game_free+0xc3>
			mlx_destroy_image(game->mlx, sprites[i]);
  40344b:	49 8b 3f             	mov    (%r15),%rdi
  40344e:	e8 8d 9b 00 00       	call   40cfe0 <mlx_destroy_image>
		if (sprites[i])
  403453:	49 8b 76 18          	mov    0x18(%r14),%rsi
  403457:	48 85 f6             	test   %rsi,%rsi
  40345a:	74 08                	je     403464 <game_free+0xd4>
			mlx_destroy_image(game->mlx, sprites[i]);
  40345c:	49 8b 3f             	mov    (%r15),%rdi
  40345f:	e8 7c 9b 00 00       	call   40cfe0 <mlx_destroy_image>
		if (sprites[i])
  403464:	49 8b 76 20          	mov    0x20(%r14),%rsi
  403468:	48 85 f6             	test   %rsi,%rsi
  40346b:	74 08                	je     403475 <game_free+0xe5>
			mlx_destroy_image(game->mlx, sprites[i]);
  40346d:	49 8b 3f             	mov    (%r15),%rdi
  403470:	e8 6b 9b 00 00       	call   40cfe0 <mlx_destroy_image>
		if (sprites[i])
  403475:	49 8b 76 28          	mov    0x28(%r14),%rsi
  403479:	48 85 f6             	test   %rsi,%rsi
  40347c:	74 08                	je     403486 <game_free+0xf6>
			mlx_destroy_image(game->mlx, sprites[i]);
  40347e:	49 8b 3f             	mov    (%r15),%rdi
  403481:	e8 5a 9b 00 00       	call   40cfe0 <mlx_destroy_image>
	free(sprites);
  403486:	4c 89 f7             	mov    %r14,%rdi
  403489:	e8 f2 ec ff ff       	call   402180 <free@plt>
	_free_anim(game, game->goblin_atk_side, 6);
  40348e:	4d 8b b7 60 03 00 00 	mov    0x360(%r15),%r14
		if (sprites[i])
  403495:	49 8b 36             	mov    (%r14),%rsi
  403498:	48 85 f6             	test   %rsi,%rsi
  40349b:	74 08                	je     4034a5 <game_free+0x115>
			mlx_destroy_image(game->mlx, sprites[i]);
  40349d:	49 8b 3f             	mov    (%r15),%rdi
  4034a0:	e8 3b 9b 00 00       	call   40cfe0 <mlx_destroy_image>
		if (sprites[i])
  4034a5:	49 8b 76 08          	mov    0x8(%r14),%rsi
  4034a9:	48 85 f6             	test   %rsi,%rsi
  4034ac:	74 08                	je     4034b6 <game_free+0x126>
			mlx_destroy_image(game->mlx, sprites[i]);
  4034ae:	49 8b 3f             	mov    (%r15),%rdi
  4034b1:	e8 2a 9b 00 00       	call   40cfe0 <mlx_destroy_image>
		if (sprites[i])
  4034b6:	49 8b 76 10          	mov    0x10(%r14),%rsi
  4034ba:	48 85 f6             	test   %rsi,%rsi
  4034bd:	74 08                	je     4034c7 <game_free+0x137>
			mlx_destroy_image(game->mlx, sprites[i]);
  4034bf:	49 8b 3f             	mov    (%r15),%rdi
  4034c2:	e8 19 9b 00 00       	call   40cfe0 <mlx_destroy_image>
		if (sprites[i])
  4034c7:	49 8b 76 18          	mov    0x18(%r14),%rsi
  4034cb:	48 85 f6             	test   %rsi,%rsi
  4034ce:	74 08                	je     4034d8 <game_free+0x148>
			mlx_destroy_image(game->mlx, sprites[i]);
  4034d0:	49 8b 3f             	mov    (%r15),%rdi
  4034d3:	e8 08 9b 00 00       	call   40cfe0 <mlx_destroy_image>
		if (sprites[i])
  4034d8:	49 8b 76 20          	mov    0x20(%r14),%rsi
  4034dc:	48 85 f6             	test   %rsi,%rsi
  4034df:	74 08                	je     4034e9 <game_free+0x159>
			mlx_destroy_image(game->mlx, sprites[i]);
  4034e1:	49 8b 3f             	mov    (%r15),%rdi
  4034e4:	e8 f7 9a 00 00       	call   40cfe0 <mlx_destroy_image>
		if (sprites[i])
  4034e9:	49 8b 76 28          	mov    0x28(%r14),%rsi
  4034ed:	48 85 f6             	test   %rsi,%rsi
  4034f0:	74 08                	je     4034fa <game_free+0x16a>
			mlx_destroy_image(game->mlx, sprites[i]);
  4034f2:	49 8b 3f             	mov    (%r15),%rdi
  4034f5:	e8 e6 9a 00 00       	call   40cfe0 <mlx_destroy_image>
	free(sprites);
  4034fa:	4c 89 f7             	mov    %r14,%rdi
  4034fd:	e8 7e ec ff ff       	call   402180 <free@plt>
	_free_anim(game, game->goblin2_idle, 6);
  403502:	4d 8b b7 70 03 00 00 	mov    0x370(%r15),%r14
		if (sprites[i])
  403509:	49 8b 36             	mov    (%r14),%rsi
  40350c:	48 85 f6             	test   %rsi,%rsi
  40350f:	74 08                	je     403519 <game_free+0x189>
			mlx_destroy_image(game->mlx, sprites[i]);
  403511:	49 8b 3f             	mov    (%r15),%rdi
  403514:	e8 c7 9a 00 00       	call   40cfe0 <mlx_destroy_image>
		if (sprites[i])
  403519:	49 8b 76 08          	mov    0x8(%r14),%rsi
  40351d:	48 85 f6             	test   %rsi,%rsi
  403520:	74 08                	je     40352a <game_free+0x19a>
			mlx_destroy_image(game->mlx, sprites[i]);
  403522:	49 8b 3f             	mov    (%r15),%rdi
  403525:	e8 b6 9a 00 00       	call   40cfe0 <mlx_destroy_image>
		if (sprites[i])
  40352a:	49 8b 76 10          	mov    0x10(%r14),%rsi
  40352e:	48 85 f6             	test   %rsi,%rsi
  403531:	74 08                	je     40353b <game_free+0x1ab>
			mlx_destroy_image(game->mlx, sprites[i]);
  403533:	49 8b 3f             	mov    (%r15),%rdi
  403536:	e8 a5 9a 00 00       	call   40cfe0 <mlx_destroy_image>
		if (sprites[i])
  40353b:	49 8b 76 18          	mov    0x18(%r14),%rsi
  40353f:	48 85 f6             	test   %rsi,%rsi
  403542:	74 08                	je     40354c <game_free+0x1bc>
			mlx_destroy_image(game->mlx, sprites[i]);
  403544:	49 8b 3f             	mov    (%r15),%rdi
  403547:	e8 94 9a 00 00       	call   40cfe0 <mlx_destroy_image>
		if (sprites[i])
  40354c:	49 8b 76 20          	mov    0x20(%r14),%rsi
  403550:	48 85 f6             	test   %rsi,%rsi
  403553:	74 08                	je     40355d <game_free+0x1cd>
			mlx_destroy_image(game->mlx, sprites[i]);
  403555:	49 8b 3f             	mov    (%r15),%rdi
  403558:	e8 83 9a 00 00       	call   40cfe0 <mlx_destroy_image>
		if (sprites[i])
  40355d:	49 8b 76 28          	mov    0x28(%r14),%rsi
  403561:	48 85 f6             	test   %rsi,%rsi
  403564:	74 08                	je     40356e <game_free+0x1de>
			mlx_destroy_image(game->mlx, sprites[i]);
  403566:	49 8b 3f             	mov    (%r15),%rdi
  403569:	e8 72 9a 00 00       	call   40cfe0 <mlx_destroy_image>
	free(sprites);
  40356e:	4c 89 f7             	mov    %r14,%rdi
  403571:	e8 0a ec ff ff       	call   402180 <free@plt>
	_free_anim(game, game->goblin2_walk, 6);
  403576:	4d 8b b7 68 03 00 00 	mov    0x368(%r15),%r14
		if (sprites[i])
  40357d:	49 8b 36             	mov    (%r14),%rsi
  403580:	48 85 f6             	test   %rsi,%rsi
  403583:	74 08                	je     40358d <game_free+0x1fd>
			mlx_destroy_image(game->mlx, sprites[i]);
  403585:	49 8b 3f             	mov    (%r15),%rdi
  403588:	e8 53 9a 00 00       	call   40cfe0 <mlx_destroy_image>
		if (sprites[i])
  40358d:	49 8b 76 08          	mov    0x8(%r14),%rsi
  403591:	48 85 f6             	test   %rsi,%rsi
  403594:	74 08                	je     40359e <game_free+0x20e>
			mlx_destroy_image(game->mlx, sprites[i]);
  403596:	49 8b 3f             	mov    (%r15),%rdi
  403599:	e8 42 9a 00 00       	call   40cfe0 <mlx_destroy_image>
		if (sprites[i])
  40359e:	49 8b 76 10          	mov    0x10(%r14),%rsi
  4035a2:	48 85 f6             	test   %rsi,%rsi
  4035a5:	74 08                	je     4035af <game_free+0x21f>
			mlx_destroy_image(game->mlx, sprites[i]);
  4035a7:	49 8b 3f             	mov    (%r15),%rdi
  4035aa:	e8 31 9a 00 00       	call   40cfe0 <mlx_destroy_image>
		if (sprites[i])
  4035af:	49 8b 76 18          	mov    0x18(%r14),%rsi
  4035b3:	48 85 f6             	test   %rsi,%rsi
  4035b6:	74 08                	je     4035c0 <game_free+0x230>
			mlx_destroy_image(game->mlx, sprites[i]);
  4035b8:	49 8b 3f             	mov    (%r15),%rdi
  4035bb:	e8 20 9a 00 00       	call   40cfe0 <mlx_destroy_image>
		if (sprites[i])
  4035c0:	49 8b 76 20          	mov    0x20(%r14),%rsi
  4035c4:	48 85 f6             	test   %rsi,%rsi
  4035c7:	74 08                	je     4035d1 <game_free+0x241>
			mlx_destroy_image(game->mlx, sprites[i]);
  4035c9:	49 8b 3f             	mov    (%r15),%rdi
  4035cc:	e8 0f 9a 00 00       	call   40cfe0 <mlx_destroy_image>
		if (sprites[i])
  4035d1:	49 8b 76 28          	mov    0x28(%r14),%rsi
  4035d5:	48 85 f6             	test   %rsi,%rsi
  4035d8:	74 08                	je     4035e2 <game_free+0x252>
			mlx_destroy_image(game->mlx, sprites[i]);
  4035da:	49 8b 3f             	mov    (%r15),%rdi
  4035dd:	e8 fe 99 00 00       	call   40cfe0 <mlx_destroy_image>
	free(sprites);
  4035e2:	4c 89 f7             	mov    %r14,%rdi
  4035e5:	e8 96 eb ff ff       	call   402180 <free@plt>
	_free_anim(game, game->goblin2_atk_side, 6);
  4035ea:	4d 8b b7 78 03 00 00 	mov    0x378(%r15),%r14
		if (sprites[i])
  4035f1:	49 8b 36             	mov    (%r14),%rsi
  4035f4:	48 85 f6             	test   %rsi,%rsi
  4035f7:	74 08                	je     403601 <game_free+0x271>
			mlx_destroy_image(game->mlx, sprites[i]);
  4035f9:	49 8b 3f             	mov    (%r15),%rdi
  4035fc:	e8 df 99 00 00       	call   40cfe0 <mlx_destroy_image>
		if (sprites[i])
  403601:	49 8b 76 08          	mov    0x8(%r14),%rsi
  403605:	48 85 f6             	test   %rsi,%rsi
  403608:	74 08                	je     403612 <game_free+0x282>
			mlx_destroy_image(game->mlx, sprites[i]);
  40360a:	49 8b 3f             	mov    (%r15),%rdi
  40360d:	e8 ce 99 00 00       	call   40cfe0 <mlx_destroy_image>
		if (sprites[i])
  403612:	49 8b 76 10          	mov    0x10(%r14),%rsi
  403616:	48 85 f6             	test   %rsi,%rsi
  403619:	74 08                	je     403623 <game_free+0x293>
			mlx_destroy_image(game->mlx, sprites[i]);
  40361b:	49 8b 3f             	mov    (%r15),%rdi
  40361e:	e8 bd 99 00 00       	call   40cfe0 <mlx_destroy_image>
		if (sprites[i])
  403623:	49 8b 76 18          	mov    0x18(%r14),%rsi
  403627:	48 85 f6             	test   %rsi,%rsi
  40362a:	74 08                	je     403634 <game_free+0x2a4>
			mlx_destroy_image(game->mlx, sprites[i]);
  40362c:	49 8b 3f             	mov    (%r15),%rdi
  40362f:	e8 ac 99 00 00       	call   40cfe0 <mlx_destroy_image>
		if (sprites[i])
  403634:	49 8b 76 20          	mov    0x20(%r14),%rsi
  403638:	48 85 f6             	test   %rsi,%rsi
  40363b:	74 08                	je     403645 <game_free+0x2b5>
			mlx_destroy_image(game->mlx, sprites[i]);
  40363d:	49 8b 3f             	mov    (%r15),%rdi
  403640:	e8 9b 99 00 00       	call   40cfe0 <mlx_destroy_image>
		if (sprites[i])
  403645:	49 8b 76 28          	mov    0x28(%r14),%rsi
  403649:	48 85 f6             	test   %rsi,%rsi
  40364c:	74 08                	je     403656 <game_free+0x2c6>
			mlx_destroy_image(game->mlx, sprites[i]);
  40364e:	49 8b 3f             	mov    (%r15),%rdi
  403651:	e8 8a 99 00 00       	call   40cfe0 <mlx_destroy_image>
	free(sprites);
  403656:	4c 89 f7             	mov    %r14,%rdi
  403659:	e8 22 eb ff ff       	call   402180 <free@plt>
	_free_anim(game, game->warrior_idle, 6);
  40365e:	4d 8b b7 88 03 00 00 	mov    0x388(%r15),%r14
		if (sprites[i])
  403665:	49 8b 36             	mov    (%r14),%rsi
  403668:	48 85 f6             	test   %rsi,%rsi
  40366b:	74 08                	je     403675 <game_free+0x2e5>
			mlx_destroy_image(game->mlx, sprites[i]);
  40366d:	49 8b 3f             	mov    (%r15),%rdi
  403670:	e8 6b 99 00 00       	call   40cfe0 <mlx_destroy_image>
		if (sprites[i])
  403675:	49 8b 76 08          	mov    0x8(%r14),%rsi
  403679:	48 85 f6             	test   %rsi,%rsi
  40367c:	74 08                	je     403686 <game_free+0x2f6>
			mlx_destroy_image(game->mlx, sprites[i]);
  40367e:	49 8b 3f             	mov    (%r15),%rdi
  403681:	e8 5a 99 00 00       	call   40cfe0 <mlx_destroy_image>
		if (sprites[i])
  403686:	49 8b 76 10          	mov    0x10(%r14),%rsi
  40368a:	48 85 f6             	test   %rsi,%rsi
  40368d:	74 08                	je     403697 <game_free+0x307>
			mlx_destroy_image(game->mlx, sprites[i]);
  40368f:	49 8b 3f             	mov    (%r15),%rdi
  403692:	e8 49 99 00 00       	call   40cfe0 <mlx_destroy_image>
		if (sprites[i])
  403697:	49 8b 76 18          	mov    0x18(%r14),%rsi
  40369b:	48 85 f6             	test   %rsi,%rsi
  40369e:	74 08                	je     4036a8 <game_free+0x318>
			mlx_destroy_image(game->mlx, sprites[i]);
  4036a0:	49 8b 3f             	mov    (%r15),%rdi
  4036a3:	e8 38 99 00 00       	call   40cfe0 <mlx_destroy_image>
		if (sprites[i])
  4036a8:	49 8b 76 20          	mov    0x20(%r14),%rsi
  4036ac:	48 85 f6             	test   %rsi,%rsi
  4036af:	74 08                	je     4036b9 <game_free+0x329>
			mlx_destroy_image(game->mlx, sprites[i]);
  4036b1:	49 8b 3f             	mov    (%r15),%rdi
  4036b4:	e8 27 99 00 00       	call   40cfe0 <mlx_destroy_image>
		if (sprites[i])
  4036b9:	49 8b 76 28          	mov    0x28(%r14),%rsi
  4036bd:	48 85 f6             	test   %rsi,%rsi
  4036c0:	74 08                	je     4036ca <game_free+0x33a>
			mlx_destroy_image(game->mlx, sprites[i]);
  4036c2:	49 8b 3f             	mov    (%r15),%rdi
  4036c5:	e8 16 99 00 00       	call   40cfe0 <mlx_destroy_image>
	free(sprites);
  4036ca:	4c 89 f7             	mov    %r14,%rdi
  4036cd:	e8 ae ea ff ff       	call   402180 <free@plt>
	_free_anim(game, game->warrior_walk, 6);
  4036d2:	4d 8b b7 80 03 00 00 	mov    0x380(%r15),%r14
		if (sprites[i])
  4036d9:	49 8b 36             	mov    (%r14),%rsi
  4036dc:	48 85 f6             	test   %rsi,%rsi
  4036df:	74 08                	je     4036e9 <game_free+0x359>
			mlx_destroy_image(game->mlx, sprites[i]);
  4036e1:	49 8b 3f             	mov    (%r15),%rdi
  4036e4:	e8 f7 98 00 00       	call   40cfe0 <mlx_destroy_image>
		if (sprites[i])
  4036e9:	49 8b 76 08          	mov    0x8(%r14),%rsi
  4036ed:	48 85 f6             	test   %rsi,%rsi
  4036f0:	74 08                	je     4036fa <game_free+0x36a>
			mlx_destroy_image(game->mlx, sprites[i]);
  4036f2:	49 8b 3f             	mov    (%r15),%rdi
  4036f5:	e8 e6 98 00 00       	call   40cfe0 <mlx_destroy_image>
		if (sprites[i])
  4036fa:	49 8b 76 10          	mov    0x10(%r14),%rsi
  4036fe:	48 85 f6             	test   %rsi,%rsi
  403701:	74 08                	je     40370b <game_free+0x37b>
			mlx_destroy_image(game->mlx, sprites[i]);
  403703:	49 8b 3f             	mov    (%r15),%rdi
  403706:	e8 d5 98 00 00       	call   40cfe0 <mlx_destroy_image>
		if (sprites[i])
  40370b:	49 8b 76 18          	mov    0x18(%r14),%rsi
  40370f:	48 85 f6             	test   %rsi,%rsi
  403712:	74 08                	je     40371c <game_free+0x38c>
			mlx_destroy_image(game->mlx, sprites[i]);
  403714:	49 8b 3f             	mov    (%r15),%rdi
  403717:	e8 c4 98 00 00       	call   40cfe0 <mlx_destroy_image>
		if (sprites[i])
  40371c:	49 8b 76 20          	mov    0x20(%r14),%rsi
  403720:	48 85 f6             	test   %rsi,%rsi
  403723:	74 08                	je     40372d <game_free+0x39d>
			mlx_destroy_image(game->mlx, sprites[i]);
  403725:	49 8b 3f             	mov    (%r15),%rdi
  403728:	e8 b3 98 00 00       	call   40cfe0 <mlx_destroy_image>
		if (sprites[i])
  40372d:	49 8b 76 28          	mov    0x28(%r14),%rsi
  403731:	48 85 f6             	test   %rsi,%rsi
  403734:	74 08                	je     40373e <game_free+0x3ae>
			mlx_destroy_image(game->mlx, sprites[i]);
  403736:	49 8b 3f             	mov    (%r15),%rdi
  403739:	e8 a2 98 00 00       	call   40cfe0 <mlx_destroy_image>
	free(sprites);
  40373e:	4c 89 f7             	mov    %r14,%rdi
  403741:	e8 3a ea ff ff       	call   402180 <free@plt>
	_free_anim(game, game->warrior_atk_side, 6);
  403746:	4d 8b b7 90 03 00 00 	mov    0x390(%r15),%r14
		if (sprites[i])
  40374d:	49 8b 36             	mov    (%r14),%rsi
  403750:	48 85 f6             	test   %rsi,%rsi
  403753:	74 08                	je     40375d <game_free+0x3cd>
			mlx_destroy_image(game->mlx, sprites[i]);
  403755:	49 8b 3f             	mov    (%r15),%rdi
  403758:	e8 83 98 00 00       	call   40cfe0 <mlx_destroy_image>
		if (sprites[i])
  40375d:	49 8b 76 08          	mov    0x8(%r14),%rsi
  403761:	48 85 f6             	test   %rsi,%rsi
  403764:	74 08                	je     40376e <game_free+0x3de>
			mlx_destroy_image(game->mlx, sprites[i]);
  403766:	49 8b 3f             	mov    (%r15),%rdi
  403769:	e8 72 98 00 00       	call   40cfe0 <mlx_destroy_image>
		if (sprites[i])
  40376e:	49 8b 76 10          	mov    0x10(%r14),%rsi
  403772:	48 85 f6             	test   %rsi,%rsi
  403775:	74 08                	je     40377f <game_free+0x3ef>
			mlx_destroy_image(game->mlx, sprites[i]);
  403777:	49 8b 3f             	mov    (%r15),%rdi
  40377a:	e8 61 98 00 00       	call   40cfe0 <mlx_destroy_image>
		if (sprites[i])
  40377f:	49 8b 76 18          	mov    0x18(%r14),%rsi
  403783:	48 85 f6             	test   %rsi,%rsi
  403786:	74 08                	je     403790 <game_free+0x400>
			mlx_destroy_image(game->mlx, sprites[i]);
  403788:	49 8b 3f             	mov    (%r15),%rdi
  40378b:	e8 50 98 00 00       	call   40cfe0 <mlx_destroy_image>
		if (sprites[i])
  403790:	49 8b 76 20          	mov    0x20(%r14),%rsi
  403794:	48 85 f6             	test   %rsi,%rsi
  403797:	74 08                	je     4037a1 <game_free+0x411>
			mlx_destroy_image(game->mlx, sprites[i]);
  403799:	49 8b 3f             	mov    (%r15),%rdi
  40379c:	e8 3f 98 00 00       	call   40cfe0 <mlx_destroy_image>
		if (sprites[i])
  4037a1:	49 8b 76 28          	mov    0x28(%r14),%rsi
  4037a5:	48 85 f6             	test   %rsi,%rsi
  4037a8:	74 08                	je     4037b2 <game_free+0x422>
			mlx_destroy_image(game->mlx, sprites[i]);
  4037aa:	49 8b 3f             	mov    (%r15),%rdi
  4037ad:	e8 2e 98 00 00       	call   40cfe0 <mlx_destroy_image>
	free(sprites);
  4037b2:	4c 89 f7             	mov    %r14,%rdi
  4037b5:	e8 c6 e9 ff ff       	call   402180 <free@plt>
	_free_anim(game, game->money_spawn, 7);
  4037ba:	4d 8b b7 98 03 00 00 	mov    0x398(%r15),%r14
		if (sprites[i])
  4037c1:	49 8b 36             	mov    (%r14),%rsi
  4037c4:	48 85 f6             	test   %rsi,%rsi
  4037c7:	74 08                	je     4037d1 <game_free+0x441>
			mlx_destroy_image(game->mlx, sprites[i]);
  4037c9:	49 8b 3f             	mov    (%r15),%rdi
  4037cc:	e8 0f 98 00 00       	call   40cfe0 <mlx_destroy_image>
		if (sprites[i])
  4037d1:	49 8b 76 08          	mov    0x8(%r14),%rsi
  4037d5:	48 85 f6             	test   %rsi,%rsi
  4037d8:	74 08                	je     4037e2 <game_free+0x452>
			mlx_destroy_image(game->mlx, sprites[i]);
  4037da:	49 8b 3f             	mov    (%r15),%rdi
  4037dd:	e8 fe 97 00 00       	call   40cfe0 <mlx_destroy_image>
		if (sprites[i])
  4037e2:	49 8b 76 10          	mov    0x10(%r14),%rsi
  4037e6:	48 85 f6             	test   %rsi,%rsi
  4037e9:	74 08                	je     4037f3 <game_free+0x463>
			mlx_destroy_image(game->mlx, sprites[i]);
  4037eb:	49 8b 3f             	mov    (%r15),%rdi
  4037ee:	e8 ed 97 00 00       	call   40cfe0 <mlx_destroy_image>
		if (sprites[i])
  4037f3:	49 8b 76 18          	mov    0x18(%r14),%rsi
  4037f7:	48 85 f6             	test   %rsi,%rsi
  4037fa:	74 08                	je     403804 <game_free+0x474>
			mlx_destroy_image(game->mlx, sprites[i]);
  4037fc:	49 8b 3f             	mov    (%r15),%rdi
  4037ff:	e8 dc 97 00 00       	call   40cfe0 <mlx_destroy_image>
		if (sprites[i])
  403804:	49 8b 76 20          	mov    0x20(%r14),%rsi
  403808:	48 85 f6             	test   %rsi,%rsi
  40380b:	74 08                	je     403815 <game_free+0x485>
			mlx_destroy_image(game->mlx, sprites[i]);
  40380d:	49 8b 3f             	mov    (%r15),%rdi
  403810:	e8 cb 97 00 00       	call   40cfe0 <mlx_destroy_image>
		if (sprites[i])
  403815:	49 8b 76 28          	mov    0x28(%r14),%rsi
  403819:	48 85 f6             	test   %rsi,%rsi
  40381c:	74 08                	je     403826 <game_free+0x496>
			mlx_destroy_image(game->mlx, sprites[i]);
  40381e:	49 8b 3f             	mov    (%r15),%rdi
  403821:	e8 ba 97 00 00       	call   40cfe0 <mlx_destroy_image>
		if (sprites[i])
  403826:	49 8b 76 30          	mov    0x30(%r14),%rsi
  40382a:	48 85 f6             	test   %rsi,%rsi
  40382d:	74 08                	je     403837 <game_free+0x4a7>
			mlx_destroy_image(game->mlx, sprites[i]);
  40382f:	49 8b 3f             	mov    (%r15),%rdi
  403832:	e8 a9 97 00 00       	call   40cfe0 <mlx_destroy_image>
	free(sprites);
  403837:	4c 89 f7             	mov    %r14,%rdi
  40383a:	e8 41 e9 ff ff       	call   402180 <free@plt>
	_free_anim(game, game->foam, 8);
  40383f:	4d 8b b7 a0 03 00 00 	mov    0x3a0(%r15),%r14
		if (sprites[i])
  403846:	49 8b 36             	mov    (%r14),%rsi
  403849:	48 85 f6             	test   %rsi,%rsi
  40384c:	74 08                	je     403856 <game_free+0x4c6>
			mlx_destroy_image(game->mlx, sprites[i]);
  40384e:	49 8b 3f             	mov    (%r15),%rdi
  403851:	e8 8a 97 00 00       	call   40cfe0 <mlx_destroy_image>
		if (sprites[i])
  403856:	49 8b 76 08          	mov    0x8(%r14),%rsi
  40385a:	48 85 f6             	test   %rsi,%rsi
  40385d:	74 08                	je     403867 <game_free+0x4d7>
			mlx_destroy_image(game->mlx, sprites[i]);
  40385f:	49 8b 3f             	mov    (%r15),%rdi
  403862:	e8 79 97 00 00       	call   40cfe0 <mlx_destroy_image>
		if (sprites[i])
  403867:	49 8b 76 10          	mov    0x10(%r14),%rsi
  40386b:	48 85 f6             	test   %rsi,%rsi
  40386e:	74 08                	je     403878 <game_free+0x4e8>
			mlx_destroy_image(game->mlx, sprites[i]);
  403870:	49 8b 3f             	mov    (%r15),%rdi
  403873:	e8 68 97 00 00       	call   40cfe0 <mlx_destroy_image>
		if (sprites[i])
  403878:	49 8b 76 18          	mov    0x18(%r14),%rsi
  40387c:	48 85 f6             	test   %rsi,%rsi
  40387f:	74 08                	je     403889 <game_free+0x4f9>
			mlx_destroy_image(game->mlx, sprites[i]);
  403881:	49 8b 3f             	mov    (%r15),%rdi
  403884:	e8 57 97 00 00       	call   40cfe0 <mlx_destroy_image>
		if (sprites[i])
  403889:	49 8b 76 20          	mov    0x20(%r14),%rsi
  40388d:	48 85 f6             	test   %rsi,%rsi
  403890:	74 08                	je     40389a <game_free+0x50a>
			mlx_destroy_image(game->mlx, sprites[i]);
  403892:	49 8b 3f             	mov    (%r15),%rdi
  403895:	e8 46 97 00 00       	call   40cfe0 <mlx_destroy_image>
		if (sprites[i])
  40389a:	49 8b 76 28          	mov    0x28(%r14),%rsi
  40389e:	48 85 f6             	test   %rsi,%rsi
  4038a1:	74 08                	je     4038ab <game_free+0x51b>
			mlx_destroy_image(game->mlx, sprites[i]);
  4038a3:	49 8b 3f             	mov    (%r15),%rdi
  4038a6:	e8 35 97 00 00       	call   40cfe0 <mlx_destroy_image>
		if (sprites[i])
  4038ab:	49 8b 76 30          	mov    0x30(%r14),%rsi
  4038af:	48 85 f6             	test   %rsi,%rsi
  4038b2:	74 08                	je     4038bc <game_free+0x52c>
			mlx_destroy_image(game->mlx, sprites[i]);
  4038b4:	49 8b 3f             	mov    (%r15),%rdi
  4038b7:	e8 24 97 00 00       	call   40cfe0 <mlx_destroy_image>
		if (sprites[i])
  4038bc:	49 8b 76 38          	mov    0x38(%r14),%rsi
  4038c0:	48 85 f6             	test   %rsi,%rsi
  4038c3:	74 08                	je     4038cd <game_free+0x53d>
			mlx_destroy_image(game->mlx, sprites[i]);
  4038c5:	49 8b 3f             	mov    (%r15),%rdi
  4038c8:	e8 13 97 00 00       	call   40cfe0 <mlx_destroy_image>
	free(sprites);
  4038cd:	4c 89 f7             	mov    %r14,%rdi
  4038d0:	e8 ab e8 ff ff       	call   402180 <free@plt>
	_free_anim(game, game->explosion, 9);
  4038d5:	4d 8b b7 a8 03 00 00 	mov    0x3a8(%r15),%r14
		if (sprites[i])
  4038dc:	49 8b 36             	mov    (%r14),%rsi
  4038df:	48 85 f6             	test   %rsi,%rsi
  4038e2:	74 08                	je     4038ec <game_free+0x55c>
			mlx_destroy_image(game->mlx, sprites[i]);
  4038e4:	49 8b 3f             	mov    (%r15),%rdi
  4038e7:	e8 f4 96 00 00       	call   40cfe0 <mlx_destroy_image>
		if (sprites[i])
  4038ec:	49 8b 76 08          	mov    0x8(%r14),%rsi
  4038f0:	48 85 f6             	test   %rsi,%rsi
  4038f3:	74 08                	je     4038fd <game_free+0x56d>
			mlx_destroy_image(game->mlx, sprites[i]);
  4038f5:	49 8b 3f             	mov    (%r15),%rdi
  4038f8:	e8 e3 96 00 00       	call   40cfe0 <mlx_destroy_image>
		if (sprites[i])
  4038fd:	49 8b 76 10          	mov    0x10(%r14),%rsi
  403901:	48 85 f6             	test   %rsi,%rsi
  403904:	74 08                	je     40390e <game_free+0x57e>
			mlx_destroy_image(game->mlx, sprites[i]);
  403906:	49 8b 3f             	mov    (%r15),%rdi
  403909:	e8 d2 96 00 00       	call   40cfe0 <mlx_destroy_image>
		if (sprites[i])
  40390e:	49 8b 76 18          	mov    0x18(%r14),%rsi
  403912:	48 85 f6             	test   %rsi,%rsi
  403915:	74 08                	je     40391f <game_free+0x58f>
			mlx_destroy_image(game->mlx, sprites[i]);
  403917:	49 8b 3f             	mov    (%r15),%rdi
  40391a:	e8 c1 96 00 00       	call   40cfe0 <mlx_destroy_image>
		if (sprites[i])
  40391f:	49 8b 76 20          	mov    0x20(%r14),%rsi
  403923:	48 85 f6             	test   %rsi,%rsi
  403926:	74 08                	je     403930 <game_free+0x5a0>
			mlx_destroy_image(game->mlx, sprites[i]);
  403928:	49 8b 3f             	mov    (%r15),%rdi
  40392b:	e8 b0 96 00 00       	call   40cfe0 <mlx_destroy_image>
		if (sprites[i])
  403930:	49 8b 76 28          	mov    0x28(%r14),%rsi
  403934:	48 85 f6             	test   %rsi,%rsi
  403937:	74 08                	je     403941 <game_free+0x5b1>
			mlx_destroy_image(game->mlx, sprites[i]);
  403939:	49 8b 3f             	mov    (%r15),%rdi
  40393c:	e8 9f 96 00 00       	call   40cfe0 <mlx_destroy_image>
		if (sprites[i])
  403941:	49 8b 76 30          	mov    0x30(%r14),%rsi
  403945:	48 85 f6             	test   %rsi,%rsi
  403948:	74 08                	je     403952 <game_free+0x5c2>
			mlx_destroy_image(game->mlx, sprites[i]);
  40394a:	49 8b 3f             	mov    (%r15),%rdi
  40394d:	e8 8e 96 00 00       	call   40cfe0 <mlx_destroy_image>
		if (sprites[i])
  403952:	49 8b 76 38          	mov    0x38(%r14),%rsi
  403956:	48 85 f6             	test   %rsi,%rsi
  403959:	74 08                	je     403963 <game_free+0x5d3>
			mlx_destroy_image(game->mlx, sprites[i]);
  40395b:	49 8b 3f             	mov    (%r15),%rdi
  40395e:	e8 7d 96 00 00       	call   40cfe0 <mlx_destroy_image>
		if (sprites[i])
  403963:	49 8b 76 40          	mov    0x40(%r14),%rsi
  403967:	48 85 f6             	test   %rsi,%rsi
  40396a:	74 08                	je     403974 <game_free+0x5e4>
			mlx_destroy_image(game->mlx, sprites[i]);
  40396c:	49 8b 3f             	mov    (%r15),%rdi
  40396f:	e8 6c 96 00 00       	call   40cfe0 <mlx_destroy_image>
	free(sprites);
  403974:	4c 89 f7             	mov    %r14,%rdi
  403977:	e8 04 e8 ff ff       	call   402180 <free@plt>
	free(game->foam_anim);
  40397c:	49 8b bf 40 03 00 00 	mov    0x340(%r15),%rdi
  403983:	e8 f8 e7 ff ff       	call   402180 <free@plt>
  403988:	bb 76 00 00 00       	mov    $0x76,%ebx
  40398d:	eb 0e                	jmp    40399d <game_free+0x60d>
  40398f:	90                   	nop
	while (++i < SP_MAX)
  403990:	48 83 c3 01          	add    $0x1,%rbx
  403994:	48 81 fb eb 00 00 00 	cmp    $0xeb,%rbx
  40399b:	74 13                	je     4039b0 <game_free+0x620>
		if (game->sprites[i])
  40399d:	49 8b 34 df          	mov    (%r15,%rbx,8),%rsi
  4039a1:	48 85 f6             	test   %rsi,%rsi
  4039a4:	74 ea                	je     403990 <game_free+0x600>
			mlx_destroy_image(game->mlx, game->sprites[i]);
  4039a6:	49 8b 3f             	mov    (%r15),%rdi
  4039a9:	e8 32 96 00 00       	call   40cfe0 <mlx_destroy_image>
  4039ae:	eb e0                	jmp    403990 <game_free+0x600>
	_free_images(game);
	free(game->keys);
  4039b0:	49 8b 7f 10          	mov    0x10(%r15),%rdi
  4039b4:	e8 c7 e7 ff ff       	call   402180 <free@plt>
	i = 0;
	while (i < vector_size(game->entities))
  4039b9:	49 8b 7f 20          	mov    0x20(%r15),%rdi
  4039bd:	e8 2e 6a 00 00       	call   40a3f0 <vector_size>
  4039c2:	85 c0                	test   %eax,%eax
  4039c4:	74 40                	je     403a06 <game_free+0x676>
  4039c6:	31 db                	xor    %ebx,%ebx
  4039c8:	eb 23                	jmp    4039ed <game_free+0x65d>
  4039ca:	66 0f 1f 44 00 00    	nopw   0x0(%rax,%rax,1)
	{
		if (game->entities[i]->free)
			game->entities[i]->free(game->entities[i]);
		free(game->entities[i]);
  4039d0:	48 8b 3c d8          	mov    (%rax,%rbx,8),%rdi
  4039d4:	e8 a7 e7 ff ff       	call   402180 <free@plt>
		i++;
  4039d9:	48 83 c3 01          	add    $0x1,%rbx
	while (i < vector_size(game->entities))
  4039dd:	49 8b 7f 20          	mov    0x20(%r15),%rdi
  4039e1:	e8 0a 6a 00 00       	call   40a3f0 <vector_size>
  4039e6:	89 c0                	mov    %eax,%eax
  4039e8:	48 39 c3             	cmp    %rax,%rbx
  4039eb:	73 19                	jae    403a06 <game_free+0x676>
		if (game->entities[i]->free)
  4039ed:	49 8b 47 20          	mov    0x20(%r15),%rax
  4039f1:	48 8b 3c d8          	mov    (%rax,%rbx,8),%rdi
  4039f5:	48 8b 4f 20          	mov    0x20(%rdi),%rcx
  4039f9:	48 85 c9             	test   %rcx,%rcx
  4039fc:	74 d2                	je     4039d0 <game_free+0x640>
			game->entities[i]->free(game->entities[i]);
  4039fe:	ff d1                	call   *%rcx
		free(game->entities[i]);
  403a00:	49 8b 47 20          	mov    0x20(%r15),%rax
  403a04:	eb ca                	jmp    4039d0 <game_free+0x640>
	}
	if (game->entities)
  403a06:	49 8b 7f 20          	mov    0x20(%r15),%rdi
  403a0a:	48 85 ff             	test   %rdi,%rdi
  403a0d:	74 05                	je     403a14 <game_free+0x684>
		vector_free(game->entities);
  403a0f:	e8 fc 69 00 00       	call   40a410 <vector_free>
	free_end(game);
  403a14:	4c 89 ff             	mov    %r15,%rdi
  403a17:	e8 e4 27 00 00       	call   406200 <free_end>
	if (game->map2)
  403a1c:	49 8b 7f 50          	mov    0x50(%r15),%rdi
  403a20:	48 85 ff             	test   %rdi,%rdi
  403a23:	74 05                	je     403a2a <game_free+0x69a>
		map2_free(game->map2);
  403a25:	e8 f6 56 00 00       	call   409120 <map2_free>
	font_free(game, game->font);
  403a2a:	49 8b b7 28 03 00 00 	mov    0x328(%r15),%rsi
  403a31:	4c 89 ff             	mov    %r15,%rdi
  403a34:	e8 37 76 00 00       	call   40b070 <font_free>
	font_free(game, game->small_font);
  403a39:	49 8b b7 30 03 00 00 	mov    0x330(%r15),%rsi
  403a40:	4c 89 ff             	mov    %r15,%rdi
  403a43:	e8 28 76 00 00       	call   40b070 <font_free>
	font_free(game, game->symbols_font);
  403a48:	49 8b b7 38 03 00 00 	mov    0x338(%r15),%rsi
  403a4f:	4c 89 ff             	mov    %r15,%rdi
  403a52:	e8 19 76 00 00       	call   40b070 <font_free>
	free(game->menu);
  403a57:	49 8b 7f 60          	mov    0x60(%r15),%rdi
  403a5b:	e8 20 e7 ff ff       	call   402180 <free@plt>
	mlx_destroy_image(game->mlx, game->canvas);
  403a60:	49 8b 3f             	mov    (%r15),%rdi
  403a63:	49 8b 77 18          	mov    0x18(%r15),%rsi
  403a67:	e8 74 95 00 00       	call   40cfe0 <mlx_destroy_image>
	free(game->buffer);
  403a6c:	49 8b 7f 38          	mov    0x38(%r15),%rdi
  403a70:	5b                   	pop    %rbx
  403a71:	41 5e                	pop    %r14
  403a73:	41 5f                	pop    %r15
  403a75:	e9 06 e7 ff ff       	jmp    402180 <free@plt>
  403a7a:	66 0f 1f 44 00 00    	nopw   0x0(%rax,%rax,1)

0000000000403a80 <load_sprites>:
	sp[SP_CLIFF_SIDE_R] = sprite(g, "textures/gen/Cliff_SideRight.xpm");
	sp[SP_CLIFF_SIDE_ALL] = sprite(g, "textures/gen/Cliff_SideAll.xpm");
}

void	load_sprites(t_game *game)
{
  403a80:	41 57                	push   %r15
  403a82:	41 56                	push   %r14
  403a84:	53                   	push   %rbx
  403a85:	48 89 fb             	mov    %rdi,%rbx
	_load_sprites1(game, game->sprites);
  403a88:	4c 8d b7 b0 03 00 00 	lea    0x3b0(%rdi),%r14
	sp[SP_WATER] = sprite(g, "textures/gen/Water.xpm");
  403a8f:	4c 8d 3d 70 b7 00 00 	lea    0xb770(%rip),%r15        # 40f206 <_IO_stdin_used+0x206>
  403a96:	4c 89 fe             	mov    %r15,%rsi
  403a99:	e8 22 0b 00 00       	call   4045c0 <sprite>
  403a9e:	48 89 83 b0 03 00 00 	mov    %rax,0x3b0(%rbx)
	sp[SP_GROUND_M] = sprite(g, "textures/gen/Mid.xpm");
  403aa5:	48 8d 35 71 b7 00 00 	lea    0xb771(%rip),%rsi        # 40f21d <_IO_stdin_used+0x21d>
  403aac:	48 89 df             	mov    %rbx,%rdi
  403aaf:	e8 0c 0b 00 00       	call   4045c0 <sprite>
  403ab4:	48 89 83 c0 03 00 00 	mov    %rax,0x3c0(%rbx)
	sp[SP_GROUND_T] = sprite(g, "textures/gen/Top.xpm");
  403abb:	48 8d 35 70 b7 00 00 	lea    0xb770(%rip),%rsi        # 40f232 <_IO_stdin_used+0x232>
  403ac2:	48 89 df             	mov    %rbx,%rdi
  403ac5:	e8 f6 0a 00 00       	call   4045c0 <sprite>
  403aca:	48 89 83 c8 03 00 00 	mov    %rax,0x3c8(%rbx)
	sp[SP_GROUND_TL] = sprite(g, "textures/gen/TopLeft.xpm");
  403ad1:	48 8d 35 6f b7 00 00 	lea    0xb76f(%rip),%rsi        # 40f247 <_IO_stdin_used+0x247>
  403ad8:	48 89 df             	mov    %rbx,%rdi
  403adb:	e8 e0 0a 00 00       	call   4045c0 <sprite>
  403ae0:	48 89 83 d0 03 00 00 	mov    %rax,0x3d0(%rbx)
	sp[SP_GROUND_TR] = sprite(g, "textures/gen/TopRight.xpm");
  403ae7:	48 8d 35 72 b7 00 00 	lea    0xb772(%rip),%rsi        # 40f260 <_IO_stdin_used+0x260>
  403aee:	48 89 df             	mov    %rbx,%rdi
  403af1:	e8 ca 0a 00 00       	call   4045c0 <sprite>
  403af6:	48 89 83 d8 03 00 00 	mov    %rax,0x3d8(%rbx)
	sp[SP_GROUND_L] = sprite(g, "textures/gen/Left.xpm");
  403afd:	48 8d 35 76 b7 00 00 	lea    0xb776(%rip),%rsi        # 40f27a <_IO_stdin_used+0x27a>
  403b04:	48 89 df             	mov    %rbx,%rdi
  403b07:	e8 b4 0a 00 00       	call   4045c0 <sprite>
  403b0c:	48 89 83 e0 03 00 00 	mov    %rax,0x3e0(%rbx)
	sp[SP_GROUND_R] = sprite(g, "textures/gen/Right.xpm");
  403b13:	48 8d 35 76 b7 00 00 	lea    0xb776(%rip),%rsi        # 40f290 <_IO_stdin_used+0x290>
  403b1a:	48 89 df             	mov    %rbx,%rdi
  403b1d:	e8 9e 0a 00 00       	call   4045c0 <sprite>
  403b22:	48 89 83 e8 03 00 00 	mov    %rax,0x3e8(%rbx)
	sp[SP_GROUND_B] = sprite(g, "textures/gen/Bot.xpm");
  403b29:	48 8d 35 77 b7 00 00 	lea    0xb777(%rip),%rsi        # 40f2a7 <_IO_stdin_used+0x2a7>
  403b30:	48 89 df             	mov    %rbx,%rdi
  403b33:	e8 88 0a 00 00       	call   4045c0 <sprite>
  403b38:	48 89 83 f0 03 00 00 	mov    %rax,0x3f0(%rbx)
	sp[SP_GROUND_BL] = sprite(g, "textures/gen/BotLeft.xpm");
  403b3f:	48 8d 35 76 b7 00 00 	lea    0xb776(%rip),%rsi        # 40f2bc <_IO_stdin_used+0x2bc>
  403b46:	48 89 df             	mov    %rbx,%rdi
  403b49:	e8 72 0a 00 00       	call   4045c0 <sprite>
  403b4e:	48 89 83 f8 03 00 00 	mov    %rax,0x3f8(%rbx)
	sp[SP_GROUND_BR] = sprite(g, "textures/gen/BotRight.xpm");
  403b55:	48 8d 35 79 b7 00 00 	lea    0xb779(%rip),%rsi        # 40f2d5 <_IO_stdin_used+0x2d5>
  403b5c:	48 89 df             	mov    %rbx,%rdi
  403b5f:	e8 5c 0a 00 00       	call   4045c0 <sprite>
  403b64:	48 89 83 00 04 00 00 	mov    %rax,0x400(%rbx)
	sp[SP_GROUND_TLR] = sprite(g, "textures/gen/TopLR.xpm");
  403b6b:	48 8d 35 7d b7 00 00 	lea    0xb77d(%rip),%rsi        # 40f2ef <_IO_stdin_used+0x2ef>
  403b72:	48 89 df             	mov    %rbx,%rdi
  403b75:	e8 46 0a 00 00       	call   4045c0 <sprite>
  403b7a:	48 89 83 08 04 00 00 	mov    %rax,0x408(%rbx)
	sp[SP_GROUND_LR] = sprite(g, "textures/gen/LR.xpm");
  403b81:	48 8d 35 7e b7 00 00 	lea    0xb77e(%rip),%rsi        # 40f306 <_IO_stdin_used+0x306>
  403b88:	48 89 df             	mov    %rbx,%rdi
  403b8b:	e8 30 0a 00 00       	call   4045c0 <sprite>
  403b90:	48 89 83 10 04 00 00 	mov    %rax,0x410(%rbx)
	sp[SP_GROUND_BLR] = sprite(g, "textures/gen/BotLR.xpm");
  403b97:	48 8d 35 7c b7 00 00 	lea    0xb77c(%rip),%rsi        # 40f31a <_IO_stdin_used+0x31a>
  403b9e:	48 89 df             	mov    %rbx,%rdi
  403ba1:	e8 1a 0a 00 00       	call   4045c0 <sprite>
  403ba6:	48 89 83 18 04 00 00 	mov    %rax,0x418(%rbx)
	sp[SP_GROUND_LBT] = sprite(g, "textures/gen/LeftBT.xpm");
  403bad:	48 8d 35 7d b7 00 00 	lea    0xb77d(%rip),%rsi        # 40f331 <_IO_stdin_used+0x331>
  403bb4:	48 89 df             	mov    %rbx,%rdi
  403bb7:	e8 04 0a 00 00       	call   4045c0 <sprite>
  403bbc:	48 89 83 20 04 00 00 	mov    %rax,0x420(%rbx)
	sp[SP_GROUND_BT] = sprite(g, "textures/gen/BT.xpm");
  403bc3:	48 8d 35 7f b7 00 00 	lea    0xb77f(%rip),%rsi        # 40f349 <_IO_stdin_used+0x349>
  403bca:	48 89 df             	mov    %rbx,%rdi
  403bcd:	e8 ee 09 00 00       	call   4045c0 <sprite>
  403bd2:	48 89 83 28 04 00 00 	mov    %rax,0x428(%rbx)
	sp[SP_GROUND_RBT] = sprite(g, "textures/gen/RightBT.xpm");
  403bd9:	48 8d 35 7d b7 00 00 	lea    0xb77d(%rip),%rsi        # 40f35d <_IO_stdin_used+0x35d>
  403be0:	48 89 df             	mov    %rbx,%rdi
  403be3:	e8 d8 09 00 00       	call   4045c0 <sprite>
  403be8:	48 89 83 30 04 00 00 	mov    %rax,0x430(%rbx)
	sp[SP_GROUND_ALL] = sprite(g, "textures/gen/All.xpm");
  403bef:	48 8d 35 80 b7 00 00 	lea    0xb780(%rip),%rsi        # 40f376 <_IO_stdin_used+0x376>
  403bf6:	48 89 df             	mov    %rbx,%rdi
  403bf9:	e8 c2 09 00 00       	call   4045c0 <sprite>
  403bfe:	48 89 83 38 04 00 00 	mov    %rax,0x438(%rbx)
	sp[SP_STAIR_LEFT] = sprite(g, "textures/gen/Stair_Left.xpm");
  403c05:	48 8d 35 7f b7 00 00 	lea    0xb77f(%rip),%rsi        # 40f38b <_IO_stdin_used+0x38b>
  403c0c:	48 89 df             	mov    %rbx,%rdi
  403c0f:	e8 ac 09 00 00       	call   4045c0 <sprite>
  403c14:	48 89 83 60 05 00 00 	mov    %rax,0x560(%rbx)
	sp[SP_STAIR_MID] = sprite(g, "textures/gen/Stair_Mid.xpm");
  403c1b:	48 8d 35 85 b7 00 00 	lea    0xb785(%rip),%rsi        # 40f3a7 <_IO_stdin_used+0x3a7>
  403c22:	48 89 df             	mov    %rbx,%rdi
  403c25:	e8 96 09 00 00       	call   4045c0 <sprite>
  403c2a:	48 89 83 68 05 00 00 	mov    %rax,0x568(%rbx)
	sp[SP_STAIR_RIGHT] = sprite(g, "textures/gen/Stair_Right.xpm");
  403c31:	48 8d 35 8a b7 00 00 	lea    0xb78a(%rip),%rsi        # 40f3c2 <_IO_stdin_used+0x3c2>
  403c38:	48 89 df             	mov    %rbx,%rdi
  403c3b:	e8 80 09 00 00       	call   4045c0 <sprite>
  403c40:	48 89 83 70 05 00 00 	mov    %rax,0x570(%rbx)
	sp[SP_STAIR_ALL] = sprite(g, "textures/gen/Stair_All.xpm");
  403c47:	48 8d 35 91 b7 00 00 	lea    0xb791(%rip),%rsi        # 40f3df <_IO_stdin_used+0x3df>
  403c4e:	48 89 df             	mov    %rbx,%rdi
  403c51:	e8 6a 09 00 00       	call   4045c0 <sprite>
  403c56:	48 89 83 78 05 00 00 	mov    %rax,0x578(%rbx)
	sp[SP_BTN_LEFT_P] = sprite(g, "textures/gen/Btn_Left_Press.xpm");
  403c5d:	48 8d 35 96 b7 00 00 	lea    0xb796(%rip),%rsi        # 40f3fa <_IO_stdin_used+0x3fa>
  403c64:	48 89 df             	mov    %rbx,%rdi
  403c67:	e8 54 09 00 00       	call   4045c0 <sprite>
  403c6c:	48 89 83 a0 05 00 00 	mov    %rax,0x5a0(%rbx)
	sp[SP_BTN_MID_P] = sprite(g, "textures/gen/Btn_Mid_Press.xpm");
  403c73:	48 8d 35 a0 b7 00 00 	lea    0xb7a0(%rip),%rsi        # 40f41a <_IO_stdin_used+0x41a>
  403c7a:	48 89 df             	mov    %rbx,%rdi
  403c7d:	e8 3e 09 00 00       	call   4045c0 <sprite>
  403c82:	48 89 83 a8 05 00 00 	mov    %rax,0x5a8(%rbx)
	sp[SP_BTN_RIGHT_P] = sprite(g, "textures/gen/Btn_Right_Press.xpm");
  403c89:	48 8d 35 a9 b7 00 00 	lea    0xb7a9(%rip),%rsi        # 40f439 <_IO_stdin_used+0x439>
  403c90:	48 89 df             	mov    %rbx,%rdi
  403c93:	e8 28 09 00 00       	call   4045c0 <sprite>
  403c98:	48 89 83 b0 05 00 00 	mov    %rax,0x5b0(%rbx)
	sp[SP_BTN_ALL_P] = sprite(g, "textures/gen/Btn_All_Press.xpm");
  403c9f:	48 8d 35 b4 b7 00 00 	lea    0xb7b4(%rip),%rsi        # 40f45a <_IO_stdin_used+0x45a>
  403ca6:	48 89 df             	mov    %rbx,%rdi
  403ca9:	e8 12 09 00 00       	call   4045c0 <sprite>
  403cae:	48 89 83 b8 05 00 00 	mov    %rax,0x5b8(%rbx)
	sp[SP_HL_TL] = sprite(g, "textures/gen/hl_tl.xpm");
  403cb5:	48 8d 35 bd b7 00 00 	lea    0xb7bd(%rip),%rsi        # 40f479 <_IO_stdin_used+0x479>
  403cbc:	48 89 df             	mov    %rbx,%rdi
  403cbf:	e8 fc 08 00 00       	call   4045c0 <sprite>
  403cc4:	48 89 83 c8 05 00 00 	mov    %rax,0x5c8(%rbx)
	sp[SP_HL_TR] = sprite(g, "textures/gen/hl_tr.xpm");
  403ccb:	48 8d 35 be b7 00 00 	lea    0xb7be(%rip),%rsi        # 40f490 <_IO_stdin_used+0x490>
  403cd2:	48 89 df             	mov    %rbx,%rdi
  403cd5:	e8 e6 08 00 00       	call   4045c0 <sprite>
  403cda:	48 89 83 d0 05 00 00 	mov    %rax,0x5d0(%rbx)
	sp[SP_HL_BL] = sprite(g, "textures/gen/hl_bl.xpm");
  403ce1:	48 8d 35 bf b7 00 00 	lea    0xb7bf(%rip),%rsi        # 40f4a7 <_IO_stdin_used+0x4a7>
  403ce8:	48 89 df             	mov    %rbx,%rdi
  403ceb:	e8 d0 08 00 00       	call   4045c0 <sprite>
  403cf0:	48 89 83 d8 05 00 00 	mov    %rax,0x5d8(%rbx)
	sp[SP_HL_BR] = sprite(g, "textures/gen/hl_br.xpm");
  403cf7:	48 8d 35 c0 b7 00 00 	lea    0xb7c0(%rip),%rsi        # 40f4be <_IO_stdin_used+0x4be>
  403cfe:	48 89 df             	mov    %rbx,%rdi
  403d01:	e8 ba 08 00 00       	call   4045c0 <sprite>
  403d06:	48 89 83 e0 05 00 00 	mov    %rax,0x5e0(%rbx)
	sp[SP_BNR_TL] = sprite(g, "textures/gen/Bnr_TopLeft.xpm");
  403d0d:	48 8d 35 c1 b7 00 00 	lea    0xb7c1(%rip),%rsi        # 40f4d5 <_IO_stdin_used+0x4d5>
  403d14:	48 89 df             	mov    %rbx,%rdi
  403d17:	e8 a4 08 00 00       	call   4045c0 <sprite>
  403d1c:	48 89 83 e8 05 00 00 	mov    %rax,0x5e8(%rbx)
	sp[SP_BNR_T] = sprite(g, "textures/gen/Bnr_Top.xpm");
  403d23:	48 8d 35 c8 b7 00 00 	lea    0xb7c8(%rip),%rsi        # 40f4f2 <_IO_stdin_used+0x4f2>
  403d2a:	48 89 df             	mov    %rbx,%rdi
  403d2d:	e8 8e 08 00 00       	call   4045c0 <sprite>
  403d32:	48 89 83 f0 05 00 00 	mov    %rax,0x5f0(%rbx)
	sp[SP_BNR_TR] = sprite(g, "textures/gen/Bnr_TopRight.xpm");
  403d39:	48 8d 35 cb b7 00 00 	lea    0xb7cb(%rip),%rsi        # 40f50b <_IO_stdin_used+0x50b>
  403d40:	48 89 df             	mov    %rbx,%rdi
  403d43:	e8 78 08 00 00       	call   4045c0 <sprite>
  403d48:	48 89 83 f8 05 00 00 	mov    %rax,0x5f8(%rbx)
	sp[SP_BNR_L] = sprite(g, "textures/gen/Bnr_Left.xpm");
  403d4f:	48 8d 35 d3 b7 00 00 	lea    0xb7d3(%rip),%rsi        # 40f529 <_IO_stdin_used+0x529>
  403d56:	48 89 df             	mov    %rbx,%rdi
  403d59:	e8 62 08 00 00       	call   4045c0 <sprite>
  403d5e:	48 89 83 00 06 00 00 	mov    %rax,0x600(%rbx)
	sp[SP_BNR_M] = sprite(g, "textures/gen/Bnr_Mid.xpm");
  403d65:	48 8d 35 d7 b7 00 00 	lea    0xb7d7(%rip),%rsi        # 40f543 <_IO_stdin_used+0x543>
  403d6c:	48 89 df             	mov    %rbx,%rdi
  403d6f:	e8 4c 08 00 00       	call   4045c0 <sprite>
  403d74:	48 89 83 08 06 00 00 	mov    %rax,0x608(%rbx)
	sp[SP_BNR_R] = sprite(g, "textures/gen/Bnr_Right.xpm");
  403d7b:	48 8d 35 da b7 00 00 	lea    0xb7da(%rip),%rsi        # 40f55c <_IO_stdin_used+0x55c>
  403d82:	48 89 df             	mov    %rbx,%rdi
  403d85:	e8 36 08 00 00       	call   4045c0 <sprite>
  403d8a:	48 89 83 10 06 00 00 	mov    %rax,0x610(%rbx)
	sp[SP_BNR_BL] = sprite(g, "textures/gen/Bnr_BotLeft.xpm");
  403d91:	48 8d 35 df b7 00 00 	lea    0xb7df(%rip),%rsi        # 40f577 <_IO_stdin_used+0x577>
  403d98:	48 89 df             	mov    %rbx,%rdi
  403d9b:	e8 20 08 00 00       	call   4045c0 <sprite>
  403da0:	48 89 83 18 06 00 00 	mov    %rax,0x618(%rbx)
	sp[SP_BNR_B] = sprite(g, "textures/gen/Bnr_Bot.xpm");
  403da7:	48 8d 35 e6 b7 00 00 	lea    0xb7e6(%rip),%rsi        # 40f594 <_IO_stdin_used+0x594>
  403dae:	48 89 df             	mov    %rbx,%rdi
  403db1:	e8 0a 08 00 00       	call   4045c0 <sprite>
  403db6:	48 89 83 20 06 00 00 	mov    %rax,0x620(%rbx)
	sp[SP_BNR_BR] = sprite(g, "textures/gen/Bnr_BotRight.xpm");
  403dbd:	48 8d 35 e9 b7 00 00 	lea    0xb7e9(%rip),%rsi        # 40f5ad <_IO_stdin_used+0x5ad>
  403dc4:	48 89 df             	mov    %rbx,%rdi
  403dc7:	e8 f4 07 00 00       	call   4045c0 <sprite>
  403dcc:	48 89 83 28 06 00 00 	mov    %rax,0x628(%rbx)
	sp[SP_BNRV_TL] = sprite(g, "textures/gen/Bnrv_TopLeft.xpm");
  403dd3:	48 8d 35 f1 b7 00 00 	lea    0xb7f1(%rip),%rsi        # 40f5cb <_IO_stdin_used+0x5cb>
  403dda:	48 89 df             	mov    %rbx,%rdi
  403ddd:	e8 de 07 00 00       	call   4045c0 <sprite>
  403de2:	48 89 83 30 06 00 00 	mov    %rax,0x630(%rbx)
	sp[SP_BNRV_T] = sprite(g, "textures/gen/Bnrv_Top.xpm");
  403de9:	48 8d 35 f9 b7 00 00 	lea    0xb7f9(%rip),%rsi        # 40f5e9 <_IO_stdin_used+0x5e9>
  403df0:	48 89 df             	mov    %rbx,%rdi
  403df3:	e8 c8 07 00 00       	call   4045c0 <sprite>
  403df8:	48 89 83 38 06 00 00 	mov    %rax,0x638(%rbx)
	sp[SP_BNRV_TR] = sprite(g, "textures/gen/Bnrv_TopRight.xpm");
  403dff:	48 8d 35 fd b7 00 00 	lea    0xb7fd(%rip),%rsi        # 40f603 <_IO_stdin_used+0x603>
  403e06:	48 89 df             	mov    %rbx,%rdi
  403e09:	e8 b2 07 00 00       	call   4045c0 <sprite>
  403e0e:	48 89 83 40 06 00 00 	mov    %rax,0x640(%rbx)
	sp[SP_BNRV_L] = sprite(g, "textures/gen/Bnrv_Left.xpm");
  403e15:	48 8d 35 06 b8 00 00 	lea    0xb806(%rip),%rsi        # 40f622 <_IO_stdin_used+0x622>
  403e1c:	48 89 df             	mov    %rbx,%rdi
  403e1f:	e8 9c 07 00 00       	call   4045c0 <sprite>
  403e24:	48 89 83 48 06 00 00 	mov    %rax,0x648(%rbx)
	sp[SP_BNRV_M] = sprite(g, "textures/gen/Bnrv_Mid.xpm");
  403e2b:	48 8d 35 0b b8 00 00 	lea    0xb80b(%rip),%rsi        # 40f63d <_IO_stdin_used+0x63d>
  403e32:	48 89 df             	mov    %rbx,%rdi
  403e35:	e8 86 07 00 00       	call   4045c0 <sprite>
  403e3a:	48 89 83 50 06 00 00 	mov    %rax,0x650(%rbx)
	sp[SP_BNRV_R] = sprite(g, "textures/gen/Bnrv_Right.xpm");
  403e41:	48 8d 35 0f b8 00 00 	lea    0xb80f(%rip),%rsi        # 40f657 <_IO_stdin_used+0x657>
  403e48:	48 89 df             	mov    %rbx,%rdi
  403e4b:	e8 70 07 00 00       	call   4045c0 <sprite>
  403e50:	48 89 83 58 06 00 00 	mov    %rax,0x658(%rbx)
	sp[SP_BNRV_BL] = sprite(g, "textures/gen/Bnrv_BotLeft.xpm");
  403e57:	48 8d 35 15 b8 00 00 	lea    0xb815(%rip),%rsi        # 40f673 <_IO_stdin_used+0x673>
  403e5e:	48 89 df             	mov    %rbx,%rdi
  403e61:	e8 5a 07 00 00       	call   4045c0 <sprite>
  403e66:	48 89 83 60 06 00 00 	mov    %rax,0x660(%rbx)
	sp[SP_BNRV_B] = sprite(g, "textures/gen/Bnrv_Bot.xpm");
  403e6d:	48 8d 35 1d b8 00 00 	lea    0xb81d(%rip),%rsi        # 40f691 <_IO_stdin_used+0x691>
  403e74:	48 89 df             	mov    %rbx,%rdi
  403e77:	e8 44 07 00 00       	call   4045c0 <sprite>
  403e7c:	48 89 83 68 06 00 00 	mov    %rax,0x668(%rbx)
	sp[SP_BNRV_BR] = sprite(g, "textures/gen/Bnrv_BotRight.xpm");
  403e83:	48 8d 35 21 b8 00 00 	lea    0xb821(%rip),%rsi        # 40f6ab <_IO_stdin_used+0x6ab>
  403e8a:	48 89 df             	mov    %rbx,%rdi
  403e8d:	e8 2e 07 00 00       	call   4045c0 <sprite>
  403e92:	48 89 83 70 06 00 00 	mov    %rax,0x670(%rbx)
	sp[SP_ONE] = sprite(g, "textures/gen/One.xpm");
  403e99:	48 8d 35 2a b8 00 00 	lea    0xb82a(%rip),%rsi        # 40f6ca <_IO_stdin_used+0x6ca>
  403ea0:	48 89 df             	mov    %rbx,%rdi
  403ea3:	e8 18 07 00 00       	call   4045c0 <sprite>
  403ea8:	48 89 83 30 07 00 00 	mov    %rax,0x730(%rbx)
	sp[SP_TWO] = sprite(g, "textures/gen/Two.xpm");
  403eaf:	48 8d 35 29 b8 00 00 	lea    0xb829(%rip),%rsi        # 40f6df <_IO_stdin_used+0x6df>
  403eb6:	48 89 df             	mov    %rbx,%rdi
  403eb9:	e8 02 07 00 00       	call   4045c0 <sprite>
  403ebe:	48 89 83 38 07 00 00 	mov    %rax,0x738(%rbx)
	sp[SP_THREE] = sprite(g, "textures/gen/Three.xpm");
  403ec5:	48 8d 35 28 b8 00 00 	lea    0xb828(%rip),%rsi        # 40f6f4 <_IO_stdin_used+0x6f4>
  403ecc:	48 89 df             	mov    %rbx,%rdi
  403ecf:	e8 ec 06 00 00       	call   4045c0 <sprite>
  403ed4:	48 89 83 40 07 00 00 	mov    %rax,0x740(%rbx)
	sp[SP_BNRCL_TL] = sprite(g, "textures/gen/Bnrcl_TopLeft.xpm");
  403edb:	48 8d 35 29 b8 00 00 	lea    0xb829(%rip),%rsi        # 40f70b <_IO_stdin_used+0x70b>
  403ee2:	48 89 df             	mov    %rbx,%rdi
  403ee5:	e8 d6 06 00 00       	call   4045c0 <sprite>
  403eea:	48 89 83 78 06 00 00 	mov    %rax,0x678(%rbx)
	sp[SP_BNRCL_T] = sprite(g, "textures/gen/Bnrcl_Top.xpm");
  403ef1:	48 8d 35 32 b8 00 00 	lea    0xb832(%rip),%rsi        # 40f72a <_IO_stdin_used+0x72a>
  403ef8:	48 89 df             	mov    %rbx,%rdi
  403efb:	e8 c0 06 00 00       	call   4045c0 <sprite>
  403f00:	48 89 83 80 06 00 00 	mov    %rax,0x680(%rbx)
	sp[SP_BNRCL_TR] = sprite(g, "textures/gen/Bnrcl_TopRight.xpm");
  403f07:	48 8d 35 37 b8 00 00 	lea    0xb837(%rip),%rsi        # 40f745 <_IO_stdin_used+0x745>
  403f0e:	48 89 df             	mov    %rbx,%rdi
  403f11:	e8 aa 06 00 00       	call   4045c0 <sprite>
  403f16:	48 89 83 88 06 00 00 	mov    %rax,0x688(%rbx)
	sp[SP_BNRCL_L] = sprite(g, "textures/gen/Bnrcl_Left.xpm");
  403f1d:	48 8d 35 41 b8 00 00 	lea    0xb841(%rip),%rsi        # 40f765 <_IO_stdin_used+0x765>
  403f24:	48 89 df             	mov    %rbx,%rdi
  403f27:	e8 94 06 00 00       	call   4045c0 <sprite>
  403f2c:	48 89 83 90 06 00 00 	mov    %rax,0x690(%rbx)
	sp[SP_BNRCL_M] = sprite(g, "textures/gen/Bnrcl_Mid.xpm");
  403f33:	48 8d 35 47 b8 00 00 	lea    0xb847(%rip),%rsi        # 40f781 <_IO_stdin_used+0x781>
  403f3a:	48 89 df             	mov    %rbx,%rdi
  403f3d:	e8 7e 06 00 00       	call   4045c0 <sprite>
  403f42:	48 89 83 98 06 00 00 	mov    %rax,0x698(%rbx)
	sp[SP_BNRCL_R] = sprite(g, "textures/gen/Bnrcl_Right.xpm");
  403f49:	48 8d 35 4c b8 00 00 	lea    0xb84c(%rip),%rsi        # 40f79c <_IO_stdin_used+0x79c>
  403f50:	48 89 df             	mov    %rbx,%rdi
  403f53:	e8 68 06 00 00       	call   4045c0 <sprite>
  403f58:	48 89 83 a0 06 00 00 	mov    %rax,0x6a0(%rbx)
	sp[SP_BNRCL_BL] = sprite(g, "textures/gen/Bnrcl_BotLeft.xpm");
  403f5f:	48 8d 35 53 b8 00 00 	lea    0xb853(%rip),%rsi        # 40f7b9 <_IO_stdin_used+0x7b9>
  403f66:	48 89 df             	mov    %rbx,%rdi
  403f69:	e8 52 06 00 00       	call   4045c0 <sprite>
  403f6e:	48 89 83 a8 06 00 00 	mov    %rax,0x6a8(%rbx)
	sp[SP_BNRCL_B] = sprite(g, "textures/gen/Bnrcl_Bot.xpm");
  403f75:	48 8d 35 5c b8 00 00 	lea    0xb85c(%rip),%rsi        # 40f7d8 <_IO_stdin_used+0x7d8>
  403f7c:	48 89 df             	mov    %rbx,%rdi
  403f7f:	e8 3c 06 00 00       	call   4045c0 <sprite>
  403f84:	48 89 83 b0 06 00 00 	mov    %rax,0x6b0(%rbx)
	sp[SP_BNRCL_BR] = sprite(g, "textures/gen/Bnrcl_BotRight.xpm");
  403f8b:	48 8d 35 61 b8 00 00 	lea    0xb861(%rip),%rsi        # 40f7f3 <_IO_stdin_used+0x7f3>
  403f92:	48 89 df             	mov    %rbx,%rdi
  403f95:	e8 26 06 00 00       	call   4045c0 <sprite>
  403f9a:	48 89 83 b8 06 00 00 	mov    %rax,0x6b8(%rbx)
	sp[SP_BNRCR_TL] = sprite(g, "textures/gen/Bnrcr_TopLeft.xpm");
  403fa1:	48 8d 35 6b b8 00 00 	lea    0xb86b(%rip),%rsi        # 40f813 <_IO_stdin_used+0x813>
  403fa8:	48 89 df             	mov    %rbx,%rdi
  403fab:	e8 10 06 00 00       	call   4045c0 <sprite>
  403fb0:	48 89 83 c0 06 00 00 	mov    %rax,0x6c0(%rbx)
	sp[SP_BNRCR_T] = sprite(g, "textures/gen/Bnrcr_Top.xpm");
  403fb7:	48 8d 35 74 b8 00 00 	lea    0xb874(%rip),%rsi        # 40f832 <_IO_stdin_used+0x832>
  403fbe:	48 89 df             	mov    %rbx,%rdi
  403fc1:	e8 fa 05 00 00       	call   4045c0 <sprite>
  403fc6:	48 89 83 c8 06 00 00 	mov    %rax,0x6c8(%rbx)
	sp[SP_BNRCR_TR] = sprite(g, "textures/gen/Bnrcr_TopRight.xpm");
  403fcd:	48 8d 35 79 b8 00 00 	lea    0xb879(%rip),%rsi        # 40f84d <_IO_stdin_used+0x84d>
  403fd4:	48 89 df             	mov    %rbx,%rdi
  403fd7:	e8 e4 05 00 00       	call   4045c0 <sprite>
  403fdc:	48 89 83 d0 06 00 00 	mov    %rax,0x6d0(%rbx)
	sp[SP_BNRCR_L] = sprite(g, "textures/gen/Bnrcr_Left.xpm");
  403fe3:	48 8d 35 83 b8 00 00 	lea    0xb883(%rip),%rsi        # 40f86d <_IO_stdin_used+0x86d>
  403fea:	48 89 df             	mov    %rbx,%rdi
  403fed:	e8 ce 05 00 00       	call   4045c0 <sprite>
  403ff2:	48 89 83 d8 06 00 00 	mov    %rax,0x6d8(%rbx)
	sp[SP_BNRCR_M] = sprite(g, "textures/gen/Bnrcr_Mid.xpm");
  403ff9:	48 8d 35 89 b8 00 00 	lea    0xb889(%rip),%rsi        # 40f889 <_IO_stdin_used+0x889>
  404000:	48 89 df             	mov    %rbx,%rdi
  404003:	e8 b8 05 00 00       	call   4045c0 <sprite>
  404008:	48 89 83 e0 06 00 00 	mov    %rax,0x6e0(%rbx)
	sp[SP_BNRCR_R] = sprite(g, "textures/gen/Bnrcr_Right.xpm");
  40400f:	48 8d 35 8e b8 00 00 	lea    0xb88e(%rip),%rsi        # 40f8a4 <_IO_stdin_used+0x8a4>
  404016:	48 89 df             	mov    %rbx,%rdi
  404019:	e8 a2 05 00 00       	call   4045c0 <sprite>
  40401e:	48 89 83 e8 06 00 00 	mov    %rax,0x6e8(%rbx)
	sp[SP_BNRCR_BL] = sprite(g, "textures/gen/Bnrcr_BotLeft.xpm");
  404025:	48 8d 35 95 b8 00 00 	lea    0xb895(%rip),%rsi        # 40f8c1 <_IO_stdin_used+0x8c1>
  40402c:	48 89 df             	mov    %rbx,%rdi
  40402f:	e8 8c 05 00 00       	call   4045c0 <sprite>
  404034:	48 89 83 f0 06 00 00 	mov    %rax,0x6f0(%rbx)
	sp[SP_BNRCR_B] = sprite(g, "textures/gen/Bnrcr_Bot.xpm");
  40403b:	48 8d 35 9e b8 00 00 	lea    0xb89e(%rip),%rsi        # 40f8e0 <_IO_stdin_used+0x8e0>
  404042:	48 89 df             	mov    %rbx,%rdi
  404045:	e8 76 05 00 00       	call   4045c0 <sprite>
  40404a:	48 89 83 f8 06 00 00 	mov    %rax,0x6f8(%rbx)
	sp[SP_BNRCR_BR] = sprite(g, "textures/gen/Bnrcr_BotRight.xpm");
  404051:	48 8d 35 a3 b8 00 00 	lea    0xb8a3(%rip),%rsi        # 40f8fb <_IO_stdin_used+0x8fb>
  404058:	48 89 df             	mov    %rbx,%rdi
  40405b:	e8 60 05 00 00       	call   4045c0 <sprite>
  404060:	48 89 83 00 07 00 00 	mov    %rax,0x700(%rbx)
	sp[SP_BTN_LEFT] = sprite(g, "textures/gen/Btn_Left.xpm");
  404067:	48 8d 35 ad b8 00 00 	lea    0xb8ad(%rip),%rsi        # 40f91b <_IO_stdin_used+0x91b>
  40406e:	48 89 df             	mov    %rbx,%rdi
  404071:	e8 4a 05 00 00       	call   4045c0 <sprite>
  404076:	48 89 83 80 05 00 00 	mov    %rax,0x580(%rbx)
	sp[SP_BTN_MID] = sprite(g, "textures/gen/Btn_Mid.xpm");
  40407d:	48 8d 35 b1 b8 00 00 	lea    0xb8b1(%rip),%rsi        # 40f935 <_IO_stdin_used+0x935>
  404084:	48 89 df             	mov    %rbx,%rdi
  404087:	e8 34 05 00 00       	call   4045c0 <sprite>
  40408c:	48 89 83 88 05 00 00 	mov    %rax,0x588(%rbx)
	sp[SP_BTN_RIGHT] = sprite(g, "textures/gen/Btn_Right.xpm");
  404093:	48 8d 35 b4 b8 00 00 	lea    0xb8b4(%rip),%rsi        # 40f94e <_IO_stdin_used+0x94e>
  40409a:	48 89 df             	mov    %rbx,%rdi
  40409d:	e8 1e 05 00 00       	call   4045c0 <sprite>
  4040a2:	48 89 83 90 05 00 00 	mov    %rax,0x590(%rbx)
	sp[SP_BTN_ALL] = sprite(g, "textures/gen/Btn_All.xpm");
  4040a9:	48 8d 35 b9 b8 00 00 	lea    0xb8b9(%rip),%rsi        # 40f969 <_IO_stdin_used+0x969>
  4040b0:	48 89 df             	mov    %rbx,%rdi
  4040b3:	e8 08 05 00 00       	call   4045c0 <sprite>
  4040b8:	48 89 83 98 05 00 00 	mov    %rax,0x598(%rbx)
	sp[SP_POINTER] = sprite(g, "textures/gen/Pointer.xpm");
  4040bf:	48 8d 35 bc b8 00 00 	lea    0xb8bc(%rip),%rsi        # 40f982 <_IO_stdin_used+0x982>
  4040c6:	48 89 df             	mov    %rbx,%rdi
  4040c9:	e8 f2 04 00 00       	call   4045c0 <sprite>
  4040ce:	48 89 83 c0 05 00 00 	mov    %rax,0x5c0(%rbx)
	sp[SP_DOOR] = sprite(g, "textures/gen/Water.xpm");
  4040d5:	48 89 df             	mov    %rbx,%rdi
  4040d8:	4c 89 fe             	mov    %r15,%rsi
  4040db:	e8 e0 04 00 00       	call   4045c0 <sprite>
  4040e0:	48 89 83 b8 03 00 00 	mov    %rax,0x3b8(%rbx)
	sp[SP_RBN_LEFT] = sprite(g, "textures/gen/Rbn_Left.xpm");
  4040e7:	48 8d 35 ad b8 00 00 	lea    0xb8ad(%rip),%rsi        # 40f99b <_IO_stdin_used+0x99b>
  4040ee:	48 89 df             	mov    %rbx,%rdi
  4040f1:	e8 ca 04 00 00       	call   4045c0 <sprite>
  4040f6:	48 89 83 08 07 00 00 	mov    %rax,0x708(%rbx)
	sp[SP_RBN_MID] = sprite(g, "textures/gen/Rbn_Mid.xpm");
  4040fd:	48 8d 35 b1 b8 00 00 	lea    0xb8b1(%rip),%rsi        # 40f9b5 <_IO_stdin_used+0x9b5>
  404104:	48 89 df             	mov    %rbx,%rdi
  404107:	e8 b4 04 00 00       	call   4045c0 <sprite>
  40410c:	48 89 83 10 07 00 00 	mov    %rax,0x710(%rbx)
	sp[SP_RBN_RIGHT] = sprite(g, "textures/gen/Rbn_Right.xpm");
  404113:	48 8d 35 b4 b8 00 00 	lea    0xb8b4(%rip),%rsi        # 40f9ce <_IO_stdin_used+0x9ce>
  40411a:	48 89 df             	mov    %rbx,%rdi
  40411d:	e8 9e 04 00 00       	call   4045c0 <sprite>
  404122:	48 89 83 18 07 00 00 	mov    %rax,0x718(%rbx)
	sp[SP_PLUS] = sprite(g, "textures/gen/Plus.xpm");
  404129:	48 8d 35 b9 b8 00 00 	lea    0xb8b9(%rip),%rsi        # 40f9e9 <_IO_stdin_used+0x9e9>
  404130:	48 89 df             	mov    %rbx,%rdi
  404133:	e8 88 04 00 00       	call   4045c0 <sprite>
  404138:	48 89 83 20 07 00 00 	mov    %rax,0x720(%rbx)
	sp[SP_CLIFF_TL] = sprite(g, "textures/gen/Cliff_TopLeft.xpm");
  40413f:	48 8d 35 b9 b8 00 00 	lea    0xb8b9(%rip),%rsi        # 40f9ff <_IO_stdin_used+0x9ff>
  404146:	48 89 df             	mov    %rbx,%rdi
  404149:	e8 72 04 00 00       	call   4045c0 <sprite>
  40414e:	48 89 83 c0 04 00 00 	mov    %rax,0x4c0(%rbx)
	sp[SP_CLIFF_T] = sprite(g, "textures/gen/Cliff_Top.xpm");
  404155:	48 8d 35 c2 b8 00 00 	lea    0xb8c2(%rip),%rsi        # 40fa1e <_IO_stdin_used+0xa1e>
  40415c:	48 89 df             	mov    %rbx,%rdi
  40415f:	e8 5c 04 00 00       	call   4045c0 <sprite>
  404164:	48 89 83 c8 04 00 00 	mov    %rax,0x4c8(%rbx)
	sp[SP_CLIFF_TR] = sprite(g, "textures/gen/Cliff_TopRight.xpm");
  40416b:	48 8d 35 c7 b8 00 00 	lea    0xb8c7(%rip),%rsi        # 40fa39 <_IO_stdin_used+0xa39>
  404172:	48 89 df             	mov    %rbx,%rdi
  404175:	e8 46 04 00 00       	call   4045c0 <sprite>
  40417a:	48 89 83 d0 04 00 00 	mov    %rax,0x4d0(%rbx)
	sp[SP_CLIFF_L] = sprite(g, "textures/gen/Cliff_Left.xpm");
  404181:	48 8d 35 d1 b8 00 00 	lea    0xb8d1(%rip),%rsi        # 40fa59 <_IO_stdin_used+0xa59>
  404188:	48 89 df             	mov    %rbx,%rdi
  40418b:	e8 30 04 00 00       	call   4045c0 <sprite>
  404190:	48 89 83 d8 04 00 00 	mov    %rax,0x4d8(%rbx)
	sp[SP_CLIFF_M] = sprite(g, "textures/gen/Cliff_Mid.xpm");
  404197:	48 8d 35 d7 b8 00 00 	lea    0xb8d7(%rip),%rsi        # 40fa75 <_IO_stdin_used+0xa75>
  40419e:	48 89 df             	mov    %rbx,%rdi
  4041a1:	e8 1a 04 00 00       	call   4045c0 <sprite>
  4041a6:	48 89 83 e0 04 00 00 	mov    %rax,0x4e0(%rbx)
	sp[SP_CLIFF_R] = sprite(g, "textures/gen/Cliff_Right.xpm");
  4041ad:	48 8d 35 dc b8 00 00 	lea    0xb8dc(%rip),%rsi        # 40fa90 <_IO_stdin_used+0xa90>
  4041b4:	48 89 df             	mov    %rbx,%rdi
  4041b7:	e8 04 04 00 00       	call   4045c0 <sprite>
  4041bc:	48 89 83 e8 04 00 00 	mov    %rax,0x4e8(%rbx)
	sp[SP_CLIFF_BL] = sprite(g, "textures/gen/Cliff_BotLeft.xpm");
  4041c3:	48 8d 35 e3 b8 00 00 	lea    0xb8e3(%rip),%rsi        # 40faad <_IO_stdin_used+0xaad>
  4041ca:	48 89 df             	mov    %rbx,%rdi
  4041cd:	e8 ee 03 00 00       	call   4045c0 <sprite>
  4041d2:	48 89 83 f0 04 00 00 	mov    %rax,0x4f0(%rbx)
	sp[SP_CLIFF_B] = sprite(g, "textures/gen/Cliff_Bot.xpm");
  4041d9:	48 8d 35 ec b8 00 00 	lea    0xb8ec(%rip),%rsi        # 40facc <_IO_stdin_used+0xacc>
  4041e0:	48 89 df             	mov    %rbx,%rdi
  4041e3:	e8 d8 03 00 00       	call   4045c0 <sprite>
  4041e8:	48 89 83 f8 04 00 00 	mov    %rax,0x4f8(%rbx)
	sp[SP_CLIFF_BR] = sprite(g, "textures/gen/Cliff_BotRight.xpm");
  4041ef:	48 8d 35 f1 b8 00 00 	lea    0xb8f1(%rip),%rsi        # 40fae7 <_IO_stdin_used+0xae7>
  4041f6:	48 89 df             	mov    %rbx,%rdi
  4041f9:	e8 c2 03 00 00       	call   4045c0 <sprite>
  4041fe:	48 89 83 00 05 00 00 	mov    %rax,0x500(%rbx)
	sp[SP_CLIFF_TLR] = sprite(g, "textures/gen/Cliff_TopLR.xpm");
  404205:	48 8d 35 fb b8 00 00 	lea    0xb8fb(%rip),%rsi        # 40fb07 <_IO_stdin_used+0xb07>
  40420c:	48 89 df             	mov    %rbx,%rdi
  40420f:	e8 ac 03 00 00       	call   4045c0 <sprite>
  404214:	48 89 83 08 05 00 00 	mov    %rax,0x508(%rbx)
	sp[SP_CLIFF_LR] = sprite(g, "textures/gen/Cliff_LR.xpm");
  40421b:	48 8d 35 02 b9 00 00 	lea    0xb902(%rip),%rsi        # 40fb24 <_IO_stdin_used+0xb24>
  404222:	48 89 df             	mov    %rbx,%rdi
  404225:	e8 96 03 00 00       	call   4045c0 <sprite>
  40422a:	48 89 83 10 05 00 00 	mov    %rax,0x510(%rbx)
	sp[SP_CLIFF_BLR] = sprite(g, "textures/gen/Cliff_BotLR.xpm");
  404231:	48 8d 35 06 b9 00 00 	lea    0xb906(%rip),%rsi        # 40fb3e <_IO_stdin_used+0xb3e>
  404238:	48 89 df             	mov    %rbx,%rdi
  40423b:	e8 80 03 00 00       	call   4045c0 <sprite>
  404240:	48 89 83 18 05 00 00 	mov    %rax,0x518(%rbx)
	sp[SP_CLIFF_LBT] = sprite(g, "textures/gen/Cliff_LeftBT.xpm");
  404247:	48 8d 35 0d b9 00 00 	lea    0xb90d(%rip),%rsi        # 40fb5b <_IO_stdin_used+0xb5b>
  40424e:	48 89 df             	mov    %rbx,%rdi
  404251:	e8 6a 03 00 00       	call   4045c0 <sprite>
  404256:	48 89 83 20 05 00 00 	mov    %rax,0x520(%rbx)
	sp[SP_CLIFF_BT] = sprite(g, "textures/gen/Cliff_BT.xpm");
  40425d:	48 8d 35 15 b9 00 00 	lea    0xb915(%rip),%rsi        # 40fb79 <_IO_stdin_used+0xb79>
  404264:	48 89 df             	mov    %rbx,%rdi
  404267:	e8 54 03 00 00       	call   4045c0 <sprite>
  40426c:	48 89 83 28 05 00 00 	mov    %rax,0x528(%rbx)
	sp[SP_CLIFF_RBT] = sprite(g, "textures/gen/Cliff_RightBT.xpm");
  404273:	48 8d 35 19 b9 00 00 	lea    0xb919(%rip),%rsi        # 40fb93 <_IO_stdin_used+0xb93>
  40427a:	48 89 df             	mov    %rbx,%rdi
  40427d:	e8 3e 03 00 00       	call   4045c0 <sprite>
  404282:	48 89 83 30 05 00 00 	mov    %rax,0x530(%rbx)
	sp[SP_CLIFF_ALL] = sprite(g, "textures/gen/Cliff_All.xpm");
  404289:	48 8d 35 22 b9 00 00 	lea    0xb922(%rip),%rsi        # 40fbb2 <_IO_stdin_used+0xbb2>
  404290:	48 89 df             	mov    %rbx,%rdi
  404293:	e8 28 03 00 00       	call   4045c0 <sprite>
  404298:	48 89 83 38 05 00 00 	mov    %rax,0x538(%rbx)
	sp[SP_CLIFF_SIDE_L] = sprite(g, "textures/gen/Cliff_SideLeft.xpm");
  40429f:	48 8d 35 27 b9 00 00 	lea    0xb927(%rip),%rsi        # 40fbcd <_IO_stdin_used+0xbcd>
  4042a6:	48 89 df             	mov    %rbx,%rdi
  4042a9:	e8 12 03 00 00       	call   4045c0 <sprite>
  4042ae:	48 89 83 40 05 00 00 	mov    %rax,0x540(%rbx)
	sp[SP_CLIFF_SIDE_M] = sprite(g, "textures/gen/Cliff_SideMid.xpm");
  4042b5:	48 8d 35 31 b9 00 00 	lea    0xb931(%rip),%rsi        # 40fbed <_IO_stdin_used+0xbed>
  4042bc:	48 89 df             	mov    %rbx,%rdi
  4042bf:	e8 fc 02 00 00       	call   4045c0 <sprite>
  4042c4:	48 89 83 48 05 00 00 	mov    %rax,0x548(%rbx)
	sp[SP_CLIFF_SIDE_R] = sprite(g, "textures/gen/Cliff_SideRight.xpm");
  4042cb:	48 8d 35 3a b9 00 00 	lea    0xb93a(%rip),%rsi        # 40fc0c <_IO_stdin_used+0xc0c>
  4042d2:	48 89 df             	mov    %rbx,%rdi
  4042d5:	e8 e6 02 00 00       	call   4045c0 <sprite>
  4042da:	48 89 83 50 05 00 00 	mov    %rax,0x550(%rbx)
	sp[SP_CLIFF_SIDE_ALL] = sprite(g, "textures/gen/Cliff_SideAll.xpm");
  4042e1:	48 8d 35 45 b9 00 00 	lea    0xb945(%rip),%rsi        # 40fc2d <_IO_stdin_used+0xc2d>
  4042e8:	48 89 df             	mov    %rbx,%rdi
  4042eb:	e8 d0 02 00 00       	call   4045c0 <sprite>
  4042f0:	48 89 83 58 05 00 00 	mov    %rax,0x558(%rbx)
	_load_sprites2(game, game->sprites);
	_load_sprites3(game, game->sprites);
	_load_sprites4(game, game->sprites);
	game->sprites[SP_GOLDMINEI] = sprite(game, "textures/gen/GoldMineI.xpm");
  4042f7:	48 8d 35 d2 ae 00 00 	lea    0xaed2(%rip),%rsi        # 40f1d0 <_IO_stdin_used+0x1d0>
  4042fe:	48 89 df             	mov    %rbx,%rdi
  404301:	e8 ba 02 00 00       	call   4045c0 <sprite>
  404306:	48 89 83 50 07 00 00 	mov    %rax,0x750(%rbx)
	game->sprites[SP_GOLDMINEA] = sprite(game, "textures/gen/GoldMineA.xpm");
  40430d:	48 8d 35 d7 ae 00 00 	lea    0xaed7(%rip),%rsi        # 40f1eb <_IO_stdin_used+0x1eb>
  404314:	48 89 df             	mov    %rbx,%rdi
  404317:	e8 a4 02 00 00       	call   4045c0 <sprite>
  40431c:	48 89 83 48 07 00 00 	mov    %rax,0x748(%rbx)
	load_sprites_pt2(game, game->sprites);
  404323:	48 89 df             	mov    %rbx,%rdi
  404326:	4c 89 f6             	mov    %r14,%rsi
  404329:	31 c0                	xor    %eax,%eax
  40432b:	5b                   	pop    %rbx
  40432c:	41 5e                	pop    %r14
  40432e:	41 5f                	pop    %r15
  404330:	e9 0b 00 00 00       	jmp    404340 <load_sprites_pt2>
  404335:	66 2e 0f 1f 84 00 00 	cs nopw 0x0(%rax,%rax,1)
  40433c:	00 00 00 
  40433f:	90                   	nop

0000000000404340 <load_sprites_pt2>:
	g->symbols_font = ft_calloc(1, sizeof(t_font));
	g->symbols_font->chars[(int) 'A'] = sprite(g, "textures/gen/heart.xpm");
}

void	load_sprites_pt2(t_game *g, t_img **sp)
{
  404340:	41 56                	push   %r14
  404342:	53                   	push   %rbx
  404343:	50                   	push   %rax
  404344:	49 89 f6             	mov    %rsi,%r14
  404347:	48 89 fb             	mov    %rdi,%rbx
	sp[SP_SAND_M] = sprite(g, "textures/gen/MidS.xpm");
  40434a:	48 8d 35 fb b8 00 00 	lea    0xb8fb(%rip),%rsi        # 40fc4c <_IO_stdin_used+0xc4c>
  404351:	e8 6a 02 00 00       	call   4045c0 <sprite>
  404356:	49 89 86 90 00 00 00 	mov    %rax,0x90(%r14)
	sp[SP_SAND_T] = sprite(g, "textures/gen/TopS.xpm");
  40435d:	48 8d 35 fe b8 00 00 	lea    0xb8fe(%rip),%rsi        # 40fc62 <_IO_stdin_used+0xc62>
  404364:	48 89 df             	mov    %rbx,%rdi
  404367:	e8 54 02 00 00       	call   4045c0 <sprite>
  40436c:	49 89 86 98 00 00 00 	mov    %rax,0x98(%r14)
	sp[SP_SAND_TL] = sprite(g, "textures/gen/TopLeftS.xpm");
  404373:	48 8d 35 fe b8 00 00 	lea    0xb8fe(%rip),%rsi        # 40fc78 <_IO_stdin_used+0xc78>
  40437a:	48 89 df             	mov    %rbx,%rdi
  40437d:	e8 3e 02 00 00       	call   4045c0 <sprite>
  404382:	49 89 86 a0 00 00 00 	mov    %rax,0xa0(%r14)
	sp[SP_SAND_TR] = sprite(g, "textures/gen/TopRightS.xpm");
  404389:	48 8d 35 02 b9 00 00 	lea    0xb902(%rip),%rsi        # 40fc92 <_IO_stdin_used+0xc92>
  404390:	48 89 df             	mov    %rbx,%rdi
  404393:	e8 28 02 00 00       	call   4045c0 <sprite>
  404398:	49 89 86 a8 00 00 00 	mov    %rax,0xa8(%r14)
	sp[SP_SAND_L] = sprite(g, "textures/gen/LeftS.xpm");
  40439f:	48 8d 35 07 b9 00 00 	lea    0xb907(%rip),%rsi        # 40fcad <_IO_stdin_used+0xcad>
  4043a6:	48 89 df             	mov    %rbx,%rdi
  4043a9:	e8 12 02 00 00       	call   4045c0 <sprite>
  4043ae:	49 89 86 b0 00 00 00 	mov    %rax,0xb0(%r14)
	sp[SP_SAND_R] = sprite(g, "textures/gen/RightS.xpm");
  4043b5:	48 8d 35 08 b9 00 00 	lea    0xb908(%rip),%rsi        # 40fcc4 <_IO_stdin_used+0xcc4>
  4043bc:	48 89 df             	mov    %rbx,%rdi
  4043bf:	e8 fc 01 00 00       	call   4045c0 <sprite>
  4043c4:	49 89 86 b8 00 00 00 	mov    %rax,0xb8(%r14)
	sp[SP_SAND_B] = sprite(g, "textures/gen/BotS.xpm");
  4043cb:	48 8d 35 0a b9 00 00 	lea    0xb90a(%rip),%rsi        # 40fcdc <_IO_stdin_used+0xcdc>
  4043d2:	48 89 df             	mov    %rbx,%rdi
  4043d5:	e8 e6 01 00 00       	call   4045c0 <sprite>
  4043da:	49 89 86 c0 00 00 00 	mov    %rax,0xc0(%r14)
	sp[SP_SAND_BL] = sprite(g, "textures/gen/BotLeftS.xpm");
  4043e1:	48 8d 35 0a b9 00 00 	lea    0xb90a(%rip),%rsi        # 40fcf2 <_IO_stdin_used+0xcf2>
  4043e8:	48 89 df             	mov    %rbx,%rdi
  4043eb:	e8 d0 01 00 00       	call   4045c0 <sprite>
  4043f0:	49 89 86 c8 00 00 00 	mov    %rax,0xc8(%r14)
	sp[SP_SAND_BR] = sprite(g, "textures/gen/BotRightS.xpm");
  4043f7:	48 8d 35 0e b9 00 00 	lea    0xb90e(%rip),%rsi        # 40fd0c <_IO_stdin_used+0xd0c>
  4043fe:	48 89 df             	mov    %rbx,%rdi
  404401:	e8 ba 01 00 00       	call   4045c0 <sprite>
  404406:	49 89 86 d0 00 00 00 	mov    %rax,0xd0(%r14)
	sp[SP_SAND_TLR] = sprite(g, "textures/gen/TopLRS.xpm");
  40440d:	48 8d 35 13 b9 00 00 	lea    0xb913(%rip),%rsi        # 40fd27 <_IO_stdin_used+0xd27>
  404414:	48 89 df             	mov    %rbx,%rdi
  404417:	e8 a4 01 00 00       	call   4045c0 <sprite>
  40441c:	49 89 86 d8 00 00 00 	mov    %rax,0xd8(%r14)
	sp[SP_SAND_LR] = sprite(g, "textures/gen/LRS.xpm");
  404423:	48 8d 35 15 b9 00 00 	lea    0xb915(%rip),%rsi        # 40fd3f <_IO_stdin_used+0xd3f>
  40442a:	48 89 df             	mov    %rbx,%rdi
  40442d:	e8 8e 01 00 00       	call   4045c0 <sprite>
  404432:	49 89 86 e0 00 00 00 	mov    %rax,0xe0(%r14)
	sp[SP_SAND_BLR] = sprite(g, "textures/gen/BotLRS.xpm");
  404439:	48 8d 35 14 b9 00 00 	lea    0xb914(%rip),%rsi        # 40fd54 <_IO_stdin_used+0xd54>
  404440:	48 89 df             	mov    %rbx,%rdi
  404443:	e8 78 01 00 00       	call   4045c0 <sprite>
  404448:	49 89 86 e8 00 00 00 	mov    %rax,0xe8(%r14)
	sp[SP_SAND_LBT] = sprite(g, "textures/gen/LeftBTS.xpm");
  40444f:	48 8d 35 16 b9 00 00 	lea    0xb916(%rip),%rsi        # 40fd6c <_IO_stdin_used+0xd6c>
  404456:	48 89 df             	mov    %rbx,%rdi
  404459:	e8 62 01 00 00       	call   4045c0 <sprite>
  40445e:	49 89 86 f0 00 00 00 	mov    %rax,0xf0(%r14)
	sp[SP_SAND_BT] = sprite(g, "textures/gen/BTS.xpm");
  404465:	48 8d 35 19 b9 00 00 	lea    0xb919(%rip),%rsi        # 40fd85 <_IO_stdin_used+0xd85>
  40446c:	48 89 df             	mov    %rbx,%rdi
  40446f:	e8 4c 01 00 00       	call   4045c0 <sprite>
  404474:	49 89 86 f8 00 00 00 	mov    %rax,0xf8(%r14)
	sp[SP_SAND_RBT] = sprite(g, "textures/gen/RightBTS.xpm");
  40447b:	48 8d 35 18 b9 00 00 	lea    0xb918(%rip),%rsi        # 40fd9a <_IO_stdin_used+0xd9a>
  404482:	48 89 df             	mov    %rbx,%rdi
  404485:	e8 36 01 00 00       	call   4045c0 <sprite>
  40448a:	49 89 86 00 01 00 00 	mov    %rax,0x100(%r14)
	sp[SP_SAND_ALL] = sprite(g, "textures/gen/AllS.xpm");
  404491:	48 8d 35 1c b9 00 00 	lea    0xb91c(%rip),%rsi        # 40fdb4 <_IO_stdin_used+0xdb4>
  404498:	48 89 df             	mov    %rbx,%rdi
  40449b:	e8 20 01 00 00       	call   4045c0 <sprite>
  4044a0:	49 89 86 08 01 00 00 	mov    %rax,0x108(%r14)
	g->symbols_font = ft_calloc(1, sizeof(t_font));
  4044a7:	bf 01 00 00 00       	mov    $0x1,%edi
  4044ac:	be 00 08 00 00       	mov    $0x800,%esi
  4044b1:	e8 ea 8f 00 00       	call   40d4a0 <ft_calloc>
  4044b6:	48 89 83 38 03 00 00 	mov    %rax,0x338(%rbx)
	g->symbols_font->chars[(int) 'A'] = sprite(g, "textures/gen/heart.xpm");
  4044bd:	48 8d 35 06 b9 00 00 	lea    0xb906(%rip),%rsi        # 40fdca <_IO_stdin_used+0xdca>
  4044c4:	48 89 df             	mov    %rbx,%rdi
  4044c7:	e8 f4 00 00 00       	call   4045c0 <sprite>
  4044cc:	48 8b 8b 38 03 00 00 	mov    0x338(%rbx),%rcx
  4044d3:	48 89 81 08 02 00 00 	mov    %rax,0x208(%rcx)
	_load_symbol_font(g);
}
  4044da:	48 83 c4 08          	add    $0x8,%rsp
  4044de:	5b                   	pop    %rbx
  4044df:	41 5e                	pop    %r14
  4044e1:	c3                   	ret    
  4044e2:	66 2e 0f 1f 84 00 00 	cs nopw 0x0(%rax,%rax,1)
  4044e9:	00 00 00 
  4044ec:	0f 1f 40 00          	nopl   0x0(%rax)

00000000004044f0 <key_pressed_hook>:

#include "gui.h"
#include "so_long.h"

int	key_pressed_hook(int keycode, t_game *game)
{
  4044f0:	50                   	push   %rax
	if (keycode == XK_Escape)
  4044f1:	81 ff 1b ff 00 00    	cmp    $0xff1b,%edi
  4044f7:	75 0a                	jne    404503 <key_pressed_hook+0x13>
	{
		mlx_loop_end(game->mlx);
  4044f9:	48 8b 3e             	mov    (%rsi),%rdi
  4044fc:	e8 5f 70 00 00       	call   40b560 <mlx_loop_end>
  404501:	eb 12                	jmp    404515 <key_pressed_hook+0x25>
		return (0);
	}
	if (keycode < 0 || keycode >= 0xFFFF)
  404503:	81 ff fe ff 00 00    	cmp    $0xfffe,%edi
  404509:	77 0a                	ja     404515 <key_pressed_hook+0x25>
		return (0);
	game->keys[keycode] = true;
  40450b:	48 8b 46 10          	mov    0x10(%rsi),%rax
  40450f:	89 f9                	mov    %edi,%ecx
  404511:	c6 04 08 01          	movb   $0x1,(%rax,%rcx,1)
	return (0);
}
  404515:	31 c0                	xor    %eax,%eax
  404517:	59                   	pop    %rcx
  404518:	c3                   	ret    
  404519:	0f 1f 80 00 00 00 00 	nopl   0x0(%rax)

0000000000404520 <key_released_hook>:

int	key_released_hook(int keycode, t_game *game)
{
	if (keycode >= 0xFFFF)
  404520:	81 ff fe ff 00 00    	cmp    $0xfffe,%edi
  404526:	7f 0b                	jg     404533 <key_released_hook+0x13>
		return (0);
	game->keys[keycode] = false;
  404528:	48 8b 46 10          	mov    0x10(%rsi),%rax
  40452c:	48 63 cf             	movslq %edi,%rcx
  40452f:	c6 04 08 00          	movb   $0x0,(%rax,%rcx,1)
	return (0);
}
  404533:	31 c0                	xor    %eax,%eax
  404535:	c3                   	ret    
  404536:	66 2e 0f 1f 84 00 00 	cs nopw 0x0(%rax,%rax,1)
  40453d:	00 00 00 

0000000000404540 <mouse_hook>:

int	mouse_hook(unsigned int btn, int x, int y, t_game *game)
{
  404540:	50                   	push   %rax
  404541:	41 89 d0             	mov    %edx,%r8d
  404544:	89 f2                	mov    %esi,%edx
  404546:	89 f8                	mov    %edi,%eax
  404548:	83 ff 01             	cmp    $0x1,%edi
	if (game->menu_opened && btn == 1)
  40454b:	75 17                	jne    404564 <mouse_hook+0x24>
  40454d:	80 79 68 00          	cmpb   $0x0,0x68(%rcx)
  404551:	74 11                	je     404564 <mouse_hook+0x24>
		menu_mouse_click(game, game->menu, x, y);
  404553:	48 8b 71 60          	mov    0x60(%rcx),%rsi
  404557:	48 89 cf             	mov    %rcx,%rdi
  40455a:	44 89 c1             	mov    %r8d,%ecx
  40455d:	e8 fe 09 00 00       	call   404f60 <menu_mouse_click>
  404562:	eb 35                	jmp    404599 <mouse_hook+0x59>
	else if (game->editor_mode)
  404564:	80 b9 70 01 00 00 00 	cmpb   $0x0,0x170(%rcx)
  40456b:	74 11                	je     40457e <mouse_hook+0x3e>
		edit_click_hook(game, x, y, btn);
  40456d:	48 89 cf             	mov    %rcx,%rdi
  404570:	89 d6                	mov    %edx,%esi
  404572:	44 89 c2             	mov    %r8d,%edx
  404575:	89 c1                	mov    %eax,%ecx
  404577:	e8 14 2c 00 00       	call   407190 <edit_click_hook>
  40457c:	eb 1b                	jmp    404599 <mouse_hook+0x59>
	else if (game->end_reached)
  40457e:	80 b9 f0 02 00 00 00 	cmpb   $0x0,0x2f0(%rcx)
  404585:	74 12                	je     404599 <mouse_hook+0x59>
		btn_click(game, &game->end.exit, x, y);
  404587:	48 8d b1 a8 02 00 00 	lea    0x2a8(%rcx),%rsi
  40458e:	48 89 cf             	mov    %rcx,%rdi
  404591:	44 89 c1             	mov    %r8d,%ecx
  404594:	e8 57 0e 00 00       	call   4053f0 <btn_click>
	return (0);
  404599:	31 c0                	xor    %eax,%eax
  40459b:	59                   	pop    %rcx
  40459c:	c3                   	ret    
  40459d:	0f 1f 00             	nopl   (%rax)

00000000004045a0 <is_key_pressed>:
}

bool	is_key_pressed(t_game *game, int keycode)
{
	return (game->keys[keycode]);
  4045a0:	48 8b 47 10          	mov    0x10(%rdi),%rax
  4045a4:	48 63 ce             	movslq %esi,%rcx
  4045a7:	8a 04 08             	mov    (%rax,%rcx,1),%al
  4045aa:	c3                   	ret    
  4045ab:	0f 1f 44 00 00       	nopl   0x0(%rax,%rax,1)

00000000004045b0 <close_hook>:
}

int	close_hook(t_game *game)
{
  4045b0:	50                   	push   %rax
	mlx_loop_end(game->mlx);
  4045b1:	48 8b 3f             	mov    (%rdi),%rdi
  4045b4:	e8 a7 6f 00 00       	call   40b560 <mlx_loop_end>
	return (0);
  4045b9:	31 c0                	xor    %eax,%eax
  4045bb:	59                   	pop    %rcx
  4045bc:	c3                   	ret    
  4045bd:	0f 1f 00             	nopl   (%rax)

00000000004045c0 <sprite>:
/* ************************************************************************** */

#include "so_long.h"

t_img	*sprite(t_game *game, char *filename)
{
  4045c0:	50                   	push   %rax
	int	width;
	int	height;

	return (mlx_xpm_file_to_image(game->mlx, filename, &width, &height));
  4045c1:	48 8b 3f             	mov    (%rdi),%rdi
  4045c4:	48 8d 54 24 04       	lea    0x4(%rsp),%rdx
  4045c9:	48 89 e1             	mov    %rsp,%rcx
  4045cc:	e8 2f 83 00 00       	call   40c900 <mlx_xpm_file_to_image>
  4045d1:	59                   	pop    %rcx
  4045d2:	c3                   	ret    
  4045d3:	66 2e 0f 1f 84 00 00 	cs nopw 0x0(%rax,%rax,1)
  4045da:	00 00 00 
  4045dd:	0f 1f 00             	nopl   (%rax)

00000000004045e0 <sp>:
}

t_img	**sp(t_game *game)
{
	return (game->sprites);
  4045e0:	48 8d 87 b0 03 00 00 	lea    0x3b0(%rdi),%rax
  4045e7:	c3                   	ret    
  4045e8:	0f 1f 84 00 00 00 00 	nopl   0x0(%rax,%rax,1)
  4045ef:	00 

00000000004045f0 <update_hook>:
		game->camera_pos.y = (game->player->pos.y + game->player2->pos.y) / 2;
	}
}

int	update_hook(t_game *game)
{
  4045f0:	55                   	push   %rbp
  4045f1:	41 57                	push   %r15
  4045f3:	41 56                	push   %r14
  4045f5:	41 55                	push   %r13
  4045f7:	41 54                	push   %r12
  4045f9:	53                   	push   %rbx
  4045fa:	48 83 ec 28          	sub    $0x28,%rsp
  4045fe:	49 89 fe             	mov    %rdi,%r14
		time = getms();
		if (time - game->last_update < UPDATE_INTERVAL)
			return (0);
		game->last_update = time;
	}
	rdr_clear_screen(game, 0x0);
  404601:	31 f6                	xor    %esi,%esi
  404603:	e8 98 61 00 00       	call   40a7a0 <rdr_clear_screen>
	map2_draw(game, game->map2, game->rdr);
  404608:	49 8b 56 30          	mov    0x30(%r14),%rdx
  40460c:	49 8b 76 50          	mov    0x50(%r14),%rsi
  404610:	4c 89 f7             	mov    %r14,%rdi
  404613:	e8 c8 31 00 00       	call   4077e0 <map2_draw>
	if (game->menu_opened)
  404618:	41 80 7e 68 00       	cmpb   $0x0,0x68(%r14)
  40461d:	74 11                	je     404630 <update_hook+0x40>
		draw_menu(game, game->menu);
  40461f:	49 8b 76 60          	mov    0x60(%r14),%rsi
  404623:	4c 89 f7             	mov    %r14,%rdi
  404626:	e8 85 06 00 00       	call   404cb0 <draw_menu>
  40462b:	e9 95 02 00 00       	jmp    4048c5 <update_hook+0x2d5>
	else if (!game->end_reached)
  404630:	41 80 be f0 02 00 00 	cmpb   $0x0,0x2f0(%r14)
  404637:	00 
  404638:	74 0d                	je     404647 <update_hook+0x57>
		_update_game(game);
	else
		draw_end(game);
  40463a:	4c 89 f7             	mov    %r14,%rdi
  40463d:	e8 5e 1c 00 00       	call   4062a0 <draw_end>
  404642:	e9 7e 02 00 00       	jmp    4048c5 <update_hook+0x2d5>
	if (game->editor_mode)
  404647:	41 80 be 70 01 00 00 	cmpb   $0x0,0x170(%r14)
  40464e:	00 
  40464f:	74 0a                	je     40465b <update_hook+0x6b>
		edit_update(game);
  404651:	4c 89 f7             	mov    %r14,%rdi
  404654:	e8 c7 22 00 00       	call   406920 <edit_update>
  404659:	eb 08                	jmp    404663 <update_hook+0x73>
		draw_hud(game);
  40465b:	4c 89 f7             	mov    %r14,%rdi
  40465e:	e8 ad 02 00 00       	call   404910 <draw_hud>
	_update_entities(game, !game->editor_mode);
  404663:	41 8a 86 70 01 00 00 	mov    0x170(%r14),%al
  40466a:	88 04 24             	mov    %al,(%rsp)
	while (++i < vector_size(game->entities))
  40466d:	4d 8d 7e 20          	lea    0x20(%r14),%r15
  404671:	49 8b 7e 20          	mov    0x20(%r14),%rdi
  404675:	e8 76 5d 00 00       	call   40a3f0 <vector_size>
  40467a:	85 c0                	test   %eax,%eax
  40467c:	0f 84 96 00 00 00    	je     404718 <update_hook+0x128>
  404682:	31 ed                	xor    %ebp,%ebp
  404684:	eb 57                	jmp    4046dd <update_hook+0xed>
  404686:	66 2e 0f 1f 84 00 00 	cs nopw 0x0(%rax,%rax,1)
  40468d:	00 00 00 
		rdr_add_sprite(game->rdr, entity->sprite, vec2_add(entity->pos,
  404690:	4d 8b 66 30          	mov    0x30(%r14),%r12
  404694:	4c 8b 6b 30          	mov    0x30(%rbx),%r13
  404698:	f2 0f 10 43 0c       	movsd  0xc(%rbx),%xmm0
  40469d:	f2 0f 10 4b 38       	movsd  0x38(%rbx),%xmm1
  4046a2:	e8 39 57 00 00       	call   409de0 <vec2_add>
			(t_add_sprite){entity->z_index, entity->level, entity->flipped,
  4046a7:	8b 43 40             	mov    0x40(%rbx),%eax
		rdr_add_sprite(game->rdr, entity->sprite, vec2_add(entity->pos,
  4046aa:	8b 53 6c             	mov    0x6c(%rbx),%edx
			(t_add_sprite){entity->z_index, entity->level, entity->flipped,
  4046ad:	0f b6 4b 60          	movzbl 0x60(%rbx),%ecx
		rdr_add_sprite(game->rdr, entity->sprite, vec2_add(entity->pos,
  4046b1:	48 c1 e2 20          	shl    $0x20,%rdx
  4046b5:	48 09 c2             	or     %rax,%rdx
  4046b8:	81 c9 00 01 00 00    	or     $0x100,%ecx
  4046be:	4c 89 e7             	mov    %r12,%rdi
  4046c1:	4c 89 ee             	mov    %r13,%rsi
  4046c4:	e8 57 62 00 00       	call   40a920 <rdr_add_sprite>
	while (++i < vector_size(game->entities))
  4046c9:	48 83 c5 01          	add    $0x1,%rbp
  4046cd:	49 8b 7e 20          	mov    0x20(%r14),%rdi
  4046d1:	e8 1a 5d 00 00       	call   40a3f0 <vector_size>
  4046d6:	89 c0                	mov    %eax,%eax
  4046d8:	48 39 c5             	cmp    %rax,%rbp
  4046db:	73 3b                	jae    404718 <update_hook+0x128>
		entity = game->entities[i];
  4046dd:	49 8b 07             	mov    (%r15),%rax
  4046e0:	48 8b 1c e8          	mov    (%rax,%rbp,8),%rbx
	_update_entities(game, !game->editor_mode);
  4046e4:	80 3c 24 00          	cmpb   $0x0,(%rsp)
		if (update && entity->update)
  4046e8:	75 a6                	jne    404690 <update_hook+0xa0>
  4046ea:	48 8b 43 18          	mov    0x18(%rbx),%rax
  4046ee:	48 85 c0             	test   %rax,%rax
  4046f1:	74 9d                	je     404690 <update_hook+0xa0>
			entity->update(game, entity);
  4046f3:	4c 89 f7             	mov    %r14,%rdi
  4046f6:	48 89 de             	mov    %rbx,%rsi
  4046f9:	ff d0                	call   *%rax
  4046fb:	eb 93                	jmp    404690 <update_hook+0xa0>
  4046fd:	0f 1f 00             	nopl   (%rax)
		entity_free((*entities)[i]);
  404700:	49 8b 07             	mov    (%r15),%rax
  404703:	89 d9                	mov    %ebx,%ecx
  404705:	48 8b 3c c8          	mov    (%rax,%rcx,8),%rdi
  404709:	e8 d2 18 00 00       	call   405fe0 <entity_free>
		vector_remove((void **)entities, i);
  40470e:	4c 89 ff             	mov    %r15,%rdi
  404711:	89 de                	mov    %ebx,%esi
  404713:	e8 58 5d 00 00       	call   40a470 <vector_remove>
		while (i < vector_size(*entities))
  404718:	49 8b 3f             	mov    (%r15),%rdi
  40471b:	e8 d0 5c 00 00       	call   40a3f0 <vector_size>
  404720:	bb 00 00 00 00       	mov    $0x0,%ebx
  404725:	85 c0                	test   %eax,%eax
  404727:	74 24                	je     40474d <update_hook+0x15d>
  404729:	31 db                	xor    %ebx,%ebx
  40472b:	0f 1f 44 00 00       	nopl   0x0(%rax,%rax,1)
			if ((*entities)[i]->state == STATE_DEAD)
  404730:	49 8b 3f             	mov    (%r15),%rdi
  404733:	48 8b 04 df          	mov    (%rdi,%rbx,8),%rax
  404737:	83 78 5c 01          	cmpl   $0x1,0x5c(%rax)
  40473b:	74 10                	je     40474d <update_hook+0x15d>
			i++;
  40473d:	48 83 c3 01          	add    $0x1,%rbx
		while (i < vector_size(*entities))
  404741:	e8 aa 5c 00 00       	call   40a3f0 <vector_size>
  404746:	89 c0                	mov    %eax,%eax
  404748:	48 39 c3             	cmp    %rax,%rbx
  40474b:	72 e3                	jb     404730 <update_hook+0x140>
		if (i >= vector_size(*entities))
  40474d:	49 8b 3f             	mov    (%r15),%rdi
  404750:	e8 9b 5c 00 00       	call   40a3f0 <vector_size>
  404755:	39 c3                	cmp    %eax,%ebx
  404757:	72 a7                	jb     404700 <update_hook+0x110>
	if (!game->player && !game->end_reached)
  404759:	49 8b 46 40          	mov    0x40(%r14),%rax
  40475d:	48 85 c0             	test   %rax,%rax
  404760:	75 0e                	jne    404770 <update_hook+0x180>
  404762:	41 80 be f0 02 00 00 	cmpb   $0x0,0x2f0(%r14)
  404769:	00 
  40476a:	0f 84 3f 01 00 00    	je     4048af <update_hook+0x2bf>
	if (game->editor_mode)
  404770:	41 80 be 70 01 00 00 	cmpb   $0x0,0x170(%r14)
  404777:	00 
  404778:	74 50                	je     4047ca <update_hook+0x1da>
  40477a:	49 8b 46 40          	mov    0x40(%r14),%rax
	if (game->player2 == NULL)
  40477e:	49 8b 4e 48          	mov    0x48(%r14),%rcx
  404782:	f3 0f 10 40 0c       	movss  0xc(%rax),%xmm0
  404787:	48 85 c9             	test   %rcx,%rcx
  40478a:	0f 84 06 01 00 00    	je     404896 <update_hook+0x2a6>
		game->camera_pos.x = (game->player->pos.x + game->player2->pos.x) / 2;
  404790:	f3 0f 58 41 0c       	addss  0xc(%rcx),%xmm0
  404795:	f3 0f 10 0d 63 b6 00 	movss  0xb663(%rip),%xmm1        # 40fe00 <_IO_stdin_used+0xe00>
  40479c:	00 
  40479d:	f3 0f 59 c1          	mulss  %xmm1,%xmm0
  4047a1:	f3 0f 2c d0          	cvttss2si %xmm0,%edx
  4047a5:	41 89 96 74 01 00 00 	mov    %edx,0x174(%r14)
		game->camera_pos.y = (game->player->pos.y + game->player2->pos.y) / 2;
  4047ac:	f3 0f 10 40 10       	movss  0x10(%rax),%xmm0
  4047b1:	f3 0f 58 41 10       	addss  0x10(%rcx),%xmm0
  4047b6:	f3 0f 59 c1          	mulss  %xmm1,%xmm0
  4047ba:	f3 0f 2c c0          	cvttss2si %xmm0,%eax
  4047be:	41 89 86 78 01 00 00 	mov    %eax,0x178(%r14)
  4047c5:	e9 fb 00 00 00       	jmp    4048c5 <update_hook+0x2d5>
	if ((box_collide_with_box(box_for_position(player->box, player->pos),
  4047ca:	f2 0f 10 50 0c       	movsd  0xc(%rax),%xmm2
  4047cf:	f2 0f 10 40 44       	movsd  0x44(%rax),%xmm0
  4047d4:	f2 0f 10 48 4c       	movsd  0x4c(%rax),%xmm1
  4047d9:	e8 82 55 00 00       	call   409d60 <box_for_position>
  4047de:	0f 29 04 24          	movaps %xmm0,(%rsp)
  4047e2:	0f 29 4c 24 10       	movaps %xmm1,0x10(%rsp)
				box_for_position((t_box){{0, 0},
  4047e7:	f2 41 0f 10 96 0c 03 	movsd  0x30c(%r14),%xmm2
  4047ee:	00 00 
  4047f0:	0f 28 0d f9 b5 00 00 	movaps 0xb5f9(%rip),%xmm1        # 40fdf0 <_IO_stdin_used+0xdf0>
  4047f7:	0f 57 c0             	xorps  %xmm0,%xmm0
  4047fa:	e8 61 55 00 00       	call   409d60 <box_for_position>
  4047ff:	0f 28 d0             	movaps %xmm0,%xmm2
  404802:	0f 28 d9             	movaps %xmm1,%xmm3
  404805:	0f 28 04 24          	movaps (%rsp),%xmm0
  404809:	0f 28 4c 24 10       	movaps 0x10(%rsp),%xmm1
	if ((box_collide_with_box(box_for_position(player->box, player->pos),
  40480e:	e8 9d 55 00 00       	call   409db0 <box_collide_with_box>
		|| (game->player2 != NULL && box_collide_with_box(
  404813:	84 c0                	test   %al,%al
  404815:	75 5e                	jne    404875 <update_hook+0x285>
  404817:	49 8b 46 48          	mov    0x48(%r14),%rax
  40481b:	48 85 c0             	test   %rax,%rax
  40481e:	0f 84 56 ff ff ff    	je     40477a <update_hook+0x18a>
				box_for_position(game->player2->box, game->player2->pos),
  404824:	f2 0f 10 50 0c       	movsd  0xc(%rax),%xmm2
  404829:	f2 0f 10 40 44       	movsd  0x44(%rax),%xmm0
  40482e:	f2 0f 10 48 4c       	movsd  0x4c(%rax),%xmm1
  404833:	e8 28 55 00 00       	call   409d60 <box_for_position>
  404838:	0f 29 04 24          	movaps %xmm0,(%rsp)
  40483c:	0f 29 4c 24 10       	movaps %xmm1,0x10(%rsp)
				box_for_position((t_box){{0, 0},
  404841:	f2 41 0f 10 96 0c 03 	movsd  0x30c(%r14),%xmm2
  404848:	00 00 
  40484a:	0f 28 0d 9f b5 00 00 	movaps 0xb59f(%rip),%xmm1        # 40fdf0 <_IO_stdin_used+0xdf0>
  404851:	0f 57 c0             	xorps  %xmm0,%xmm0
  404854:	e8 07 55 00 00       	call   409d60 <box_for_position>
  404859:	0f 28 d0             	movaps %xmm0,%xmm2
  40485c:	0f 28 d9             	movaps %xmm1,%xmm3
  40485f:	0f 28 04 24          	movaps (%rsp),%xmm0
  404863:	0f 28 4c 24 10       	movaps 0x10(%rsp),%xmm1
		|| (game->player2 != NULL && box_collide_with_box(
  404868:	e8 43 55 00 00       	call   409db0 <box_collide_with_box>
		&& game->collectibles == game->collectibles_count)
  40486d:	84 c0                	test   %al,%al
  40486f:	0f 84 05 ff ff ff    	je     40477a <update_hook+0x18a>
  404875:	41 8b 86 04 03 00 00 	mov    0x304(%r14),%eax
  40487c:	41 3b 86 00 03 00 00 	cmp    0x300(%r14),%eax
	if ((box_collide_with_box(box_for_position(player->box, player->pos),
  404883:	0f 85 f1 fe ff ff    	jne    40477a <update_hook+0x18a>
		game->end_reached = true;
  404889:	41 c6 86 f0 02 00 00 	movb   $0x1,0x2f0(%r14)
  404890:	01 
  404891:	e9 e4 fe ff ff       	jmp    40477a <update_hook+0x18a>
		game->camera_pos.x = game->player->pos.x;
  404896:	f3 0f 2c c8          	cvttss2si %xmm0,%ecx
  40489a:	41 89 8e 74 01 00 00 	mov    %ecx,0x174(%r14)
		game->camera_pos.y = game->player->pos.y;
  4048a1:	f3 0f 2c 40 10       	cvttss2si 0x10(%rax),%eax
  4048a6:	41 89 86 78 01 00 00 	mov    %eax,0x178(%r14)
  4048ad:	eb 16                	jmp    4048c5 <update_hook+0x2d5>
		game->end_reached = true;
  4048af:	41 c6 86 f0 02 00 00 	movb   $0x1,0x2f0(%r14)
  4048b6:	01 
		game->end.title = "Game over";
  4048b7:	48 8d 05 46 b5 00 00 	lea    0xb546(%rip),%rax        # 40fe04 <_IO_stdin_used+0xe04>
  4048be:	49 89 86 e8 02 00 00 	mov    %rax,0x2e8(%r14)
	rdr_draw(game->rdr, game);
  4048c5:	49 8b 7e 30          	mov    0x30(%r14),%rdi
  4048c9:	4c 89 f6             	mov    %r14,%rsi
  4048cc:	e8 ff 5c 00 00       	call   40a5d0 <rdr_draw>
	mlx_put_image_to_window(game->mlx, game->win, game->canvas, 0, 0);
  4048d1:	49 8b 3e             	mov    (%r14),%rdi
  4048d4:	49 8b 76 08          	mov    0x8(%r14),%rsi
  4048d8:	49 8b 56 18          	mov    0x18(%r14),%rdx
  4048dc:	31 c9                	xor    %ecx,%ecx
  4048de:	45 31 c0             	xor    %r8d,%r8d
  4048e1:	e8 3a 74 00 00       	call   40bd20 <mlx_put_image_to_window>
	rdr_clear(game->rdr);
  4048e6:	49 8b 7e 30          	mov    0x30(%r14),%rdi
  4048ea:	e8 91 5c 00 00       	call   40a580 <rdr_clear>
	anim_update(game->foam_anim);
  4048ef:	49 8b be 40 03 00 00 	mov    0x340(%r14),%rdi
  4048f6:	e8 e5 1d 00 00       	call   4066e0 <anim_update>
	return (0);
  4048fb:	31 c0                	xor    %eax,%eax
  4048fd:	48 83 c4 28          	add    $0x28,%rsp
  404901:	5b                   	pop    %rbx
  404902:	41 5c                	pop    %r12
  404904:	41 5d                	pop    %r13
  404906:	41 5e                	pop    %r14
  404908:	41 5f                	pop    %r15
  40490a:	5d                   	pop    %rbp
  40490b:	c3                   	ret    
  40490c:	0f 1f 40 00          	nopl   0x0(%rax)

0000000000404910 <draw_hud>:
	rdr_add_text(game->rdr, game->buffer, (t_vec2){25, y}, (t_add_text){
		992000, 5, game->symbols_font, color});
}

void	draw_hud(t_game *game)
{
  404910:	41 57                	push   %r15
  404912:	41 56                	push   %r14
  404914:	41 54                	push   %r12
  404916:	53                   	push   %rbx
  404917:	48 83 ec 68          	sub    $0x68,%rsp
  40491b:	48 89 fb             	mov    %rdi,%rbx
	const char	*msg2 = "Go back to your gold mine !";
	const int	x = WIN_WIDTH / 2 - SCALED_SIZE * 5;
	const int	size = 14;
	char		*msg;

	if (game->collectibles_count == game->collectibles)
  40491e:	8b 87 00 03 00 00    	mov    0x300(%rdi),%eax
  404924:	3b 87 04 03 00 00    	cmp    0x304(%rdi),%eax
  40492a:	48 8d 05 3e b5 00 00 	lea    0xb53e(%rip),%rax        # 40fe6f <_IO_stdin_used+0xe6f>
  404931:	4c 8d 35 20 b5 00 00 	lea    0xb520(%rip),%r14        # 40fe58 <_IO_stdin_used+0xe58>
  404938:	4c 0f 44 f0          	cmove  %rax,%r14
		msg = (char *) msg2;
	else
		msg = (char *) msg1;
	draw_ribbon(game, (t_vec2i){WIN_WIDTH / 2 - SCALED_SIZE * (size / 2), 0},
  40493c:	be 10 01 00 00       	mov    $0x110,%esi
  404941:	ba 0e 00 00 00       	mov    $0xe,%edx
  404946:	e8 e5 14 00 00       	call   405e30 <draw_ribbon>
  40494b:	48 be c0 ff ff ff d0 	movabs $0xffffffd0ffffffc0,%rsi
  404952:	ff ff ff 
  404955:	48 ba 05 00 00 00 04 	movabs $0x400000005,%rdx
  40495c:	00 00 00 
		size);
	draw_banner_h(game, (t_vec2i){-64, -48}, (t_vec2i){5, 4});
  40495f:	48 89 df             	mov    %rbx,%rdi
  404962:	e8 29 0c 00 00       	call   405590 <draw_banner_h>
	rdr_add_text(game->rdr, (void *)msg, (t_vec2){
  404967:	4c 8b 7b 30          	mov    0x30(%rbx),%r15
		text_center_x(game->font, (void *)msg, x - 150, size * SCALED_SIZE),
  40496b:	48 8b bb 28 03 00 00 	mov    0x328(%rbx),%rdi
  404972:	4c 89 f6             	mov    %r14,%rsi
  404975:	ba fa 00 00 00       	mov    $0xfa,%edx
  40497a:	b9 80 03 00 00       	mov    $0x380,%ecx
  40497f:	e8 2c 06 00 00       	call   404fb0 <text_center_x>
  404984:	f3 0f 2a c0          	cvtsi2ss %eax,%xmm0
  404988:	0f 29 44 24 50       	movaps %xmm0,0x50(%rsp)
		text_center_y(game->font, (void *)msg, 0, SCALED_SIZE) - 8},
  40498d:	48 8b bb 28 03 00 00 	mov    0x328(%rbx),%rdi
  404994:	4c 89 f6             	mov    %r14,%rsi
  404997:	31 d2                	xor    %edx,%edx
  404999:	b9 40 00 00 00       	mov    $0x40,%ecx
  40499e:	e8 5d 06 00 00       	call   405000 <text_center_y>
  4049a3:	83 c0 f8             	add    $0xfffffff8,%eax
  4049a6:	f3 0f 2a c8          	cvtsi2ss %eax,%xmm1
  4049aa:	0f 28 44 24 50       	movaps 0x50(%rsp),%xmm0
	rdr_add_text(game->rdr, (void *)msg, (t_vec2){
  4049af:	0f 14 c1             	unpcklps %xmm1,%xmm0
  4049b2:	49 bc 00 23 0f 00 05 	movabs $0x5000f2300,%r12
  4049b9:	00 00 00 
		(t_add_text){992000, 5, game->font, 0x0});
  4049bc:	4c 89 64 24 38       	mov    %r12,0x38(%rsp)
  4049c1:	48 8b 83 28 03 00 00 	mov    0x328(%rbx),%rax
  4049c8:	48 89 44 24 40       	mov    %rax,0x40(%rsp)
  4049cd:	c7 44 24 48 00 00 00 	movl   $0x0,0x48(%rsp)
  4049d4:	00 
	rdr_add_text(game->rdr, (void *)msg, (t_vec2){
  4049d5:	48 8b 44 24 48       	mov    0x48(%rsp),%rax
  4049da:	48 89 44 24 10       	mov    %rax,0x10(%rsp)
  4049df:	0f 10 4c 24 38       	movups 0x38(%rsp),%xmm1
  4049e4:	0f 11 0c 24          	movups %xmm1,(%rsp)
  4049e8:	4c 89 ff             	mov    %r15,%rdi
  4049eb:	4c 89 f6             	mov    %r14,%rsi
  4049ee:	e8 0d 60 00 00       	call   40aa00 <rdr_add_text>
	ft_sprintf(game->buffer, "Moves %d", game->moves);
  4049f3:	48 8b 7b 38          	mov    0x38(%rbx),%rdi
  4049f7:	8b 93 08 03 00 00    	mov    0x308(%rbx),%edx
  4049fd:	48 8d 35 87 b4 00 00 	lea    0xb487(%rip),%rsi        # 40fe8b <_IO_stdin_used+0xe8b>
  404a04:	31 c0                	xor    %eax,%eax
  404a06:	e8 05 8e 00 00       	call   40d810 <ft_sprintf>
	rdr_add_text(game->rdr, game->buffer, (t_vec2){10, 10},
  404a0b:	48 8b 7b 30          	mov    0x30(%rbx),%rdi
  404a0f:	48 8b 73 38          	mov    0x38(%rbx),%rsi
		(t_add_text){992000, 5, game->small_font, 0x0});
  404a13:	4c 89 64 24 20       	mov    %r12,0x20(%rsp)
  404a18:	48 8b 83 30 03 00 00 	mov    0x330(%rbx),%rax
  404a1f:	48 89 44 24 28       	mov    %rax,0x28(%rsp)
  404a24:	c7 44 24 30 00 00 00 	movl   $0x0,0x30(%rsp)
  404a2b:	00 
	rdr_add_text(game->rdr, game->buffer, (t_vec2){10, 10},
  404a2c:	48 8b 44 24 30       	mov    0x30(%rsp),%rax
  404a31:	48 89 44 24 10       	mov    %rax,0x10(%rsp)
  404a36:	0f 10 44 24 20       	movups 0x20(%rsp),%xmm0
  404a3b:	0f 11 04 24          	movups %xmm0,(%rsp)
  404a3f:	0f 28 05 ca b3 00 00 	movaps 0xb3ca(%rip),%xmm0        # 40fe10 <_IO_stdin_used+0xe10>
  404a46:	e8 b5 5f 00 00       	call   40aa00 <rdr_add_text>
	rdr_add_sprite(game->rdr, game->money_spawn[6], (t_vec2){-40, -15},
  404a4b:	48 8b 7b 30          	mov    0x30(%rbx),%rdi
  404a4f:	48 8b 83 98 03 00 00 	mov    0x398(%rbx),%rax
  404a56:	48 8b 70 30          	mov    0x30(%rax),%rsi
  404a5a:	0f 28 05 bf b3 00 00 	movaps 0xb3bf(%rip),%xmm0        # 40fe20 <_IO_stdin_used+0xe20>
  404a61:	48 ba 80 83 01 00 05 	movabs $0x500018380,%rdx
  404a68:	00 00 00 
  404a6b:	31 c9                	xor    %ecx,%ecx
  404a6d:	e8 ae 5e 00 00       	call   40a920 <rdr_add_sprite>
	ft_sprintf(game->buffer, "%d out of %d", game->collectibles,
  404a72:	48 8b 7b 38          	mov    0x38(%rbx),%rdi
  404a76:	8b 93 04 03 00 00    	mov    0x304(%rbx),%edx
		game->collectibles_count);
  404a7c:	8b 8b 00 03 00 00    	mov    0x300(%rbx),%ecx
	ft_sprintf(game->buffer, "%d out of %d", game->collectibles,
  404a82:	48 8d 35 0b b4 00 00 	lea    0xb40b(%rip),%rsi        # 40fe94 <_IO_stdin_used+0xe94>
  404a89:	31 c0                	xor    %eax,%eax
  404a8b:	e8 80 8d 00 00       	call   40d810 <ft_sprintf>
	rdr_add_text(game->rdr, game->buffer, (t_vec2){50, 50},
  404a90:	48 8b 7b 30          	mov    0x30(%rbx),%rdi
  404a94:	48 8b 73 38          	mov    0x38(%rbx),%rsi
		(t_add_text){992000, 5, game->small_font, 0x0});
  404a98:	4c 89 64 24 20       	mov    %r12,0x20(%rsp)
  404a9d:	48 8b 83 30 03 00 00 	mov    0x330(%rbx),%rax
  404aa4:	48 89 44 24 28       	mov    %rax,0x28(%rsp)
  404aa9:	c7 44 24 30 00 00 00 	movl   $0x0,0x30(%rsp)
  404ab0:	00 
	rdr_add_text(game->rdr, game->buffer, (t_vec2){50, 50},
  404ab1:	48 8b 44 24 30       	mov    0x30(%rsp),%rax
  404ab6:	48 89 44 24 10       	mov    %rax,0x10(%rsp)
  404abb:	0f 10 44 24 20       	movups 0x20(%rsp),%xmm0
  404ac0:	0f 11 04 24          	movups %xmm0,(%rsp)
  404ac4:	0f 28 05 65 b3 00 00 	movaps 0xb365(%rip),%xmm0        # 40fe30 <_IO_stdin_used+0xe30>
  404acb:	e8 30 5f 00 00       	call   40aa00 <rdr_add_text>
	_draw_movements(game);
	_draw_collects(game);
	_draw_health_bar(game, game->player->health,
  404ad0:	48 8b 43 40          	mov    0x40(%rbx),%rax
  404ad4:	8b 70 64             	mov    0x64(%rax),%esi
		((t_player *)game->player->extension)->is_p2);
  404ad7:	48 8b 40 28          	mov    0x28(%rax),%rax
  404adb:	0f b6 50 20          	movzbl 0x20(%rax),%edx
	_draw_health_bar(game, game->player->health,
  404adf:	48 89 df             	mov    %rbx,%rdi
  404ae2:	e8 39 00 00 00       	call   404b20 <_draw_health_bar>
	if (game->player2)
  404ae7:	48 8b 43 48          	mov    0x48(%rbx),%rax
  404aeb:	48 85 c0             	test   %rax,%rax
  404aee:	74 18                	je     404b08 <draw_hud+0x1f8>
		_draw_health_bar(game, game->player2->health, true);
  404af0:	8b 70 64             	mov    0x64(%rax),%esi
  404af3:	48 89 df             	mov    %rbx,%rdi
  404af6:	ba 01 00 00 00       	mov    $0x1,%edx
  404afb:	48 83 c4 68          	add    $0x68,%rsp
  404aff:	5b                   	pop    %rbx
  404b00:	41 5c                	pop    %r12
  404b02:	41 5e                	pop    %r14
  404b04:	41 5f                	pop    %r15
  404b06:	eb 18                	jmp    404b20 <_draw_health_bar>
}
  404b08:	48 83 c4 68          	add    $0x68,%rsp
  404b0c:	5b                   	pop    %rbx
  404b0d:	41 5c                	pop    %r12
  404b0f:	41 5e                	pop    %r14
  404b11:	41 5f                	pop    %r15
  404b13:	c3                   	ret    
  404b14:	66 2e 0f 1f 84 00 00 	cs nopw 0x0(%rax,%rax,1)
  404b1b:	00 00 00 
  404b1e:	66 90                	xchg   %ax,%ax

0000000000404b20 <_draw_health_bar>:
{
  404b20:	55                   	push   %rbp
  404b21:	41 56                	push   %r14
  404b23:	53                   	push   %rbx
  404b24:	48 83 ec 70          	sub    $0x70,%rsp
  404b28:	41 89 d6             	mov    %edx,%r14d
  404b2b:	89 f5                	mov    %esi,%ebp
  404b2d:	48 89 fb             	mov    %rdi,%rbx
	ft_bzero(game->buffer, 30);
  404b30:	48 8b 7f 38          	mov    0x38(%rdi),%rdi
  404b34:	be 1e 00 00 00       	mov    $0x1e,%esi
  404b39:	e8 a2 86 00 00       	call   40d1e0 <ft_bzero>
	while (i < health)
  404b3e:	85 ed                	test   %ebp,%ebp
  404b40:	7e 70                	jle    404bb2 <_draw_health_bar+0x92>
  404b42:	89 ea                	mov    %ebp,%edx
  404b44:	48 8d 4a ff          	lea    -0x1(%rdx),%rcx
  404b48:	89 d0                	mov    %edx,%eax
  404b4a:	83 e0 03             	and    $0x3,%eax
  404b4d:	48 83 f9 03          	cmp    $0x3,%rcx
  404b51:	73 04                	jae    404b57 <_draw_health_bar+0x37>
  404b53:	31 c9                	xor    %ecx,%ecx
  404b55:	eb 35                	jmp    404b8c <_draw_health_bar+0x6c>
  404b57:	83 e2 fc             	and    $0xfffffffc,%edx
  404b5a:	31 c9                	xor    %ecx,%ecx
  404b5c:	0f 1f 40 00          	nopl   0x0(%rax)
		game->buffer[i++] = 'A';
  404b60:	48 8b 73 38          	mov    0x38(%rbx),%rsi
  404b64:	c6 04 0e 41          	movb   $0x41,(%rsi,%rcx,1)
  404b68:	48 8b 73 38          	mov    0x38(%rbx),%rsi
  404b6c:	c6 44 0e 01 41       	movb   $0x41,0x1(%rsi,%rcx,1)
  404b71:	48 8b 73 38          	mov    0x38(%rbx),%rsi
  404b75:	c6 44 0e 02 41       	movb   $0x41,0x2(%rsi,%rcx,1)
  404b7a:	48 8b 73 38          	mov    0x38(%rbx),%rsi
  404b7e:	c6 44 0e 03 41       	movb   $0x41,0x3(%rsi,%rcx,1)
  404b83:	48 83 c1 04          	add    $0x4,%rcx
	while (i < health)
  404b87:	48 39 ca             	cmp    %rcx,%rdx
  404b8a:	75 d4                	jne    404b60 <_draw_health_bar+0x40>
  404b8c:	48 85 c0             	test   %rax,%rax
  404b8f:	74 21                	je     404bb2 <_draw_health_bar+0x92>
  404b91:	66 2e 0f 1f 84 00 00 	cs nopw 0x0(%rax,%rax,1)
  404b98:	00 00 00 
  404b9b:	0f 1f 44 00 00       	nopl   0x0(%rax,%rax,1)
		game->buffer[i++] = 'A';
  404ba0:	48 8b 53 38          	mov    0x38(%rbx),%rdx
  404ba4:	c6 04 0a 41          	movb   $0x41,(%rdx,%rcx,1)
  404ba8:	48 83 c1 01          	add    $0x1,%rcx
	while (i < health)
  404bac:	48 83 c0 ff          	add    $0xffffffffffffffff,%rax
  404bb0:	75 ee                	jne    404ba0 <_draw_health_bar+0x80>
  404bb2:	b8 ff 00 ff ff       	mov    $0xffff00ff,%eax
  404bb7:	bd 00 00 ff ff       	mov    $0xffff0000,%ebp
	if (p2)
  404bbc:	45 84 f6             	test   %r14b,%r14b
  404bbf:	0f 45 e8             	cmovne %eax,%ebp
  404bc2:	75 0a                	jne    404bce <_draw_health_bar+0xae>
  404bc4:	66 0f 6e 15 88 b2 00 	movd   0xb288(%rip),%xmm2        # 40fe54 <_IO_stdin_used+0xe54>
  404bcb:	00 
  404bcc:	eb 08                	jmp    404bd6 <_draw_health_bar+0xb6>
  404bce:	66 0f 6e 15 7a b2 00 	movd   0xb27a(%rip),%xmm2        # 40fe50 <_IO_stdin_used+0xe50>
  404bd5:	00 
  404bd6:	48 8b 7b 30          	mov    0x30(%rbx),%rdi
  404bda:	f3 0f 7e c2          	movq   %xmm2,%xmm0
  404bde:	0f 57 c9             	xorps  %xmm1,%xmm1
  404be1:	0f c6 c1 e2          	shufps $0xe2,%xmm1,%xmm0
  404be5:	49 be 00 23 0f 00 05 	movabs $0x5000f2300,%r14
  404bec:	00 00 00 
  404bef:	66 0f 7f 54 24 60    	movdqa %xmm2,0x60(%rsp)
	if (!p2)
  404bf5:	74 31                	je     404c28 <_draw_health_bar+0x108>
		rdr_add_text(game->rdr, "P2 ", (t_vec2){0, y}, (t_add_text){
  404bf7:	4c 89 74 24 30       	mov    %r14,0x30(%rsp)
			992000, 5, game->small_font, color});
  404bfc:	48 8b 83 30 03 00 00 	mov    0x330(%rbx),%rax
		rdr_add_text(game->rdr, "P2 ", (t_vec2){0, y}, (t_add_text){
  404c03:	48 89 44 24 38       	mov    %rax,0x38(%rsp)
  404c08:	89 6c 24 40          	mov    %ebp,0x40(%rsp)
  404c0c:	48 8b 44 24 40       	mov    0x40(%rsp),%rax
  404c11:	48 89 44 24 10       	mov    %rax,0x10(%rsp)
  404c16:	0f 10 4c 24 30       	movups 0x30(%rsp),%xmm1
  404c1b:	0f 11 0c 24          	movups %xmm1,(%rsp)
  404c1f:	48 8d 35 7f b2 00 00 	lea    0xb27f(%rip),%rsi        # 40fea5 <_IO_stdin_used+0xea5>
  404c26:	eb 2f                	jmp    404c57 <_draw_health_bar+0x137>
		rdr_add_text(game->rdr, "P1 ", (t_vec2){0, y}, (t_add_text){
  404c28:	4c 89 74 24 48       	mov    %r14,0x48(%rsp)
			992000, 5, game->small_font, color});
  404c2d:	48 8b 83 30 03 00 00 	mov    0x330(%rbx),%rax
		rdr_add_text(game->rdr, "P1 ", (t_vec2){0, y}, (t_add_text){
  404c34:	48 89 44 24 50       	mov    %rax,0x50(%rsp)
  404c39:	89 6c 24 58          	mov    %ebp,0x58(%rsp)
  404c3d:	48 8b 44 24 58       	mov    0x58(%rsp),%rax
  404c42:	48 89 44 24 10       	mov    %rax,0x10(%rsp)
  404c47:	0f 10 4c 24 48       	movups 0x48(%rsp),%xmm1
  404c4c:	0f 11 0c 24          	movups %xmm1,(%rsp)
  404c50:	48 8d 35 4a b2 00 00 	lea    0xb24a(%rip),%rsi        # 40fea1 <_IO_stdin_used+0xea1>
  404c57:	e8 a4 5d 00 00       	call   40aa00 <rdr_add_text>
  404c5c:	0f 28 4c 24 60       	movaps 0x60(%rsp),%xmm1
	rdr_add_text(game->rdr, game->buffer, (t_vec2){25, y}, (t_add_text){
  404c61:	48 8b 7b 30          	mov    0x30(%rbx),%rdi
  404c65:	48 8b 73 38          	mov    0x38(%rbx),%rsi
  404c69:	4c 89 74 24 18       	mov    %r14,0x18(%rsp)
		992000, 5, game->symbols_font, color});
  404c6e:	48 8b 83 38 03 00 00 	mov    0x338(%rbx),%rax
	rdr_add_text(game->rdr, game->buffer, (t_vec2){25, y}, (t_add_text){
  404c75:	48 89 44 24 20       	mov    %rax,0x20(%rsp)
  404c7a:	89 6c 24 28          	mov    %ebp,0x28(%rsp)
  404c7e:	48 8b 44 24 28       	mov    0x28(%rsp),%rax
  404c83:	48 89 44 24 10       	mov    %rax,0x10(%rsp)
  404c88:	0f 10 44 24 18       	movups 0x18(%rsp),%xmm0
  404c8d:	0f 11 04 24          	movups %xmm0,(%rsp)
  404c91:	0f 28 05 a8 b1 00 00 	movaps 0xb1a8(%rip),%xmm0        # 40fe40 <_IO_stdin_used+0xe40>
  404c98:	0f 14 c1             	unpcklps %xmm1,%xmm0
  404c9b:	e8 60 5d 00 00       	call   40aa00 <rdr_add_text>
}
  404ca0:	48 83 c4 70          	add    $0x70,%rsp
  404ca4:	5b                   	pop    %rbx
  404ca5:	41 5e                	pop    %r14
  404ca7:	5d                   	pop    %rbp
  404ca8:	c3                   	ret    
  404ca9:	0f 1f 80 00 00 00 00 	nopl   0x0(%rax)

0000000000404cb0 <draw_menu>:
			text_center_x(game->small_font, (char *)msg, x + 64 * 3, 6 * 64),
			320}, (t_add_text){10, 5, game->small_font, 0x0});
}

void	draw_menu(t_game *g, t_gamemenu *menu)
{
  404cb0:	55                   	push   %rbp
  404cb1:	41 57                	push   %r15
  404cb3:	41 56                	push   %r14
  404cb5:	41 55                	push   %r13
  404cb7:	41 54                	push   %r12
  404cb9:	53                   	push   %rbx
  404cba:	48 83 ec 38          	sub    $0x38,%rsp
  404cbe:	49 89 f6             	mov    %rsi,%r14
  404cc1:	48 89 fb             	mov    %rdi,%rbx
  404cc4:	49 bc 90 00 00 00 80 	movabs $0x8000000090,%r12
  404ccb:	00 00 00 
  404cce:	48 bd 06 00 00 00 05 	movabs $0x500000006,%rbp
  404cd5:	00 00 00 
	const int	x = WIN_WIDTH / 2 - 4 * SCALED_SIZE;
	const char	*c_me[] = {"Made by ledelbec", "@FirePh0enix on Github"};
	const char	*c[] = {"Credits to Pixel Frog", "on itch.io for the art"};

	rdr_add_blur(g->rdr, 2, 250000);
  404cd8:	48 8b 7f 30          	mov    0x30(%rdi),%rdi
  404cdc:	be 02 00 00 00       	mov    $0x2,%esi
  404ce1:	ba 90 d0 03 00       	mov    $0x3d090,%edx
  404ce6:	e8 f5 5d 00 00       	call   40aae0 <rdr_add_blur>
	draw_banner_cl(g, (t_vec2i){x - 5 * SCALED_SIZE, SCALED_SIZE * 2},
  404ceb:	48 89 df             	mov    %rbx,%rdi
  404cee:	4c 89 e6             	mov    %r12,%rsi
  404cf1:	48 89 ea             	mov    %rbp,%rdx
  404cf4:	e8 c7 0b 00 00       	call   4058c0 <draw_banner_cl>
	if (!game->map_valid)
  404cf9:	80 7b 58 00          	cmpb   $0x0,0x58(%rbx)
  404cfd:	49 bf 0a 00 00 00 05 	movabs $0x50000000a,%r15
  404d04:	00 00 00 
  404d07:	75 67                	jne    404d70 <draw_menu+0xc0>
		rdr_add_text(game->rdr, (char *)msg, (t_vec2){
  404d09:	4c 8b 6b 30          	mov    0x30(%rbx),%r13
			text_center_x(game->small_font, (char *)msg, x + 64 * 3, 6 * 64),
  404d0d:	48 8b bb 30 03 00 00 	mov    0x330(%rbx),%rdi
  404d14:	48 8d 35 1a b2 00 00 	lea    0xb21a(%rip),%rsi        # 40ff35 <_IO_stdin_used+0xf35>
  404d1b:	ba 90 02 00 00       	mov    $0x290,%edx
  404d20:	b9 80 01 00 00       	mov    $0x180,%ecx
  404d25:	e8 86 02 00 00       	call   404fb0 <text_center_x>
			320}, (t_add_text){10, 5, game->small_font, 0x0});
  404d2a:	4c 89 7c 24 20       	mov    %r15,0x20(%rsp)
  404d2f:	48 8b 8b 30 03 00 00 	mov    0x330(%rbx),%rcx
  404d36:	48 89 4c 24 28       	mov    %rcx,0x28(%rsp)
  404d3b:	c7 44 24 30 00 00 00 	movl   $0x0,0x30(%rsp)
  404d42:	00 
		rdr_add_text(game->rdr, (char *)msg, (t_vec2){
  404d43:	48 8b 4c 24 30       	mov    0x30(%rsp),%rcx
  404d48:	48 89 4c 24 10       	mov    %rcx,0x10(%rsp)
  404d4d:	0f 10 44 24 20       	movups 0x20(%rsp),%xmm0
  404d52:	0f 11 04 24          	movups %xmm0,(%rsp)
  404d56:	0f 28 05 53 b1 00 00 	movaps 0xb153(%rip),%xmm0        # 40feb0 <_IO_stdin_used+0xeb0>
  404d5d:	f3 0f 2a c0          	cvtsi2ss %eax,%xmm0
  404d61:	4c 89 ef             	mov    %r13,%rdi
  404d64:	48 8d 35 ca b1 00 00 	lea    0xb1ca(%rip),%rsi        # 40ff35 <_IO_stdin_used+0xf35>
  404d6b:	e8 90 5c 00 00       	call   40aa00 <rdr_add_text>
		(t_vec2i){6, 5});
	_draw_error(g);
	_draw_text(g, (char *)c_me[0], (t_vec2i){
		text_center_x(g->small_font, (char *)c_me[0],
  404d70:	48 8b bb 30 03 00 00 	mov    0x330(%rbx),%rdi
  404d77:	4c 8d 2d 62 b1 00 00 	lea    0xb162(%rip),%r13        # 40fee0 <_IO_stdin_used+0xee0>
  404d7e:	4c 89 ee             	mov    %r13,%rsi
  404d81:	ba 10 01 00 00       	mov    $0x110,%edx
  404d86:	b9 80 00 00 00       	mov    $0x80,%ecx
  404d8b:	e8 20 02 00 00       	call   404fb0 <text_center_x>
	rdr_add_text(game->rdr, str, (t_vec2){pos.x, pos.y},
  404d90:	48 8b 7b 30          	mov    0x30(%rbx),%rdi
		(t_add_text){10, 5, game->small_font, 0x0});
  404d94:	4c 89 7c 24 20       	mov    %r15,0x20(%rsp)
  404d99:	48 8b 8b 30 03 00 00 	mov    0x330(%rbx),%rcx
  404da0:	48 89 4c 24 28       	mov    %rcx,0x28(%rsp)
  404da5:	c7 44 24 30 00 00 00 	movl   $0x0,0x30(%rsp)
  404dac:	00 
	rdr_add_text(game->rdr, str, (t_vec2){pos.x, pos.y},
  404dad:	48 8b 4c 24 30       	mov    0x30(%rsp),%rcx
  404db2:	48 89 4c 24 10       	mov    %rcx,0x10(%rsp)
  404db7:	0f 10 44 24 20       	movups 0x20(%rsp),%xmm0
  404dbc:	0f 11 04 24          	movups %xmm0,(%rsp)
  404dc0:	0f 28 05 f9 b0 00 00 	movaps 0xb0f9(%rip),%xmm0        # 40fec0 <_IO_stdin_used+0xec0>
  404dc7:	f3 0f 2a c0          	cvtsi2ss %eax,%xmm0
  404dcb:	4c 89 ee             	mov    %r13,%rsi
  404dce:	e8 2d 5c 00 00       	call   40aa00 <rdr_add_text>
			x - 3 * 64, SCALED_SIZE * 2), SCALED_SIZE * 4});
	_draw_text(g, (char *)c_me[1], (t_vec2i){
		text_center_x(g->small_font, (char *)c_me[1], x - 3 * 64, 128), 288});
  404dd3:	48 8b bb 30 03 00 00 	mov    0x330(%rbx),%rdi
  404dda:	4c 8d 2d 10 b1 00 00 	lea    0xb110(%rip),%r13        # 40fef1 <_IO_stdin_used+0xef1>
  404de1:	4c 89 ee             	mov    %r13,%rsi
  404de4:	ba 10 01 00 00       	mov    $0x110,%edx
  404de9:	b9 80 00 00 00       	mov    $0x80,%ecx
  404dee:	e8 bd 01 00 00       	call   404fb0 <text_center_x>
	rdr_add_text(game->rdr, str, (t_vec2){pos.x, pos.y},
  404df3:	48 8b 7b 30          	mov    0x30(%rbx),%rdi
		(t_add_text){10, 5, game->small_font, 0x0});
  404df7:	4c 89 7c 24 20       	mov    %r15,0x20(%rsp)
  404dfc:	48 8b 8b 30 03 00 00 	mov    0x330(%rbx),%rcx
  404e03:	48 89 4c 24 28       	mov    %rcx,0x28(%rsp)
  404e08:	c7 44 24 30 00 00 00 	movl   $0x0,0x30(%rsp)
  404e0f:	00 
	rdr_add_text(game->rdr, str, (t_vec2){pos.x, pos.y},
  404e10:	48 8b 4c 24 30       	mov    0x30(%rsp),%rcx
  404e15:	48 89 4c 24 10       	mov    %rcx,0x10(%rsp)
  404e1a:	0f 10 44 24 20       	movups 0x20(%rsp),%xmm0
  404e1f:	0f 11 04 24          	movups %xmm0,(%rsp)
  404e23:	0f 28 05 a6 b0 00 00 	movaps 0xb0a6(%rip),%xmm0        # 40fed0 <_IO_stdin_used+0xed0>
  404e2a:	f3 0f 2a c0          	cvtsi2ss %eax,%xmm0
  404e2e:	4c 89 ee             	mov    %r13,%rsi
  404e31:	e8 ca 5b 00 00       	call   40aa00 <rdr_add_text>
	draw_banner_cr(g, (t_vec2i){x + 7 * SCALED_SIZE, SCALED_SIZE * 2},
  404e36:	49 81 c4 00 03 00 00 	add    $0x300,%r12
  404e3d:	48 89 df             	mov    %rbx,%rdi
  404e40:	4c 89 e6             	mov    %r12,%rsi
  404e43:	48 89 ea             	mov    %rbp,%rdx
  404e46:	e8 75 0b 00 00       	call   4059c0 <draw_banner_cr>
		(t_vec2i){6, 5});
	_draw_text(g, (char *)c[0], (t_vec2i){text_center_x(g->small_font,
  404e4b:	48 8b bb 30 03 00 00 	mov    0x330(%rbx),%rdi
  404e52:	48 8d 2d af b0 00 00 	lea    0xb0af(%rip),%rbp        # 40ff08 <_IO_stdin_used+0xf08>
  404e59:	48 89 ee             	mov    %rbp,%rsi
  404e5c:	ba fc 03 00 00       	mov    $0x3fc,%edx
  404e61:	b9 80 00 00 00       	mov    $0x80,%ecx
  404e66:	e8 45 01 00 00       	call   404fb0 <text_center_x>
	rdr_add_text(game->rdr, str, (t_vec2){pos.x, pos.y},
  404e6b:	48 8b 7b 30          	mov    0x30(%rbx),%rdi
		(t_add_text){10, 5, game->small_font, 0x0});
  404e6f:	4c 89 7c 24 20       	mov    %r15,0x20(%rsp)
  404e74:	48 8b 8b 30 03 00 00 	mov    0x330(%rbx),%rcx
  404e7b:	48 89 4c 24 28       	mov    %rcx,0x28(%rsp)
  404e80:	c7 44 24 30 00 00 00 	movl   $0x0,0x30(%rsp)
  404e87:	00 
	rdr_add_text(game->rdr, str, (t_vec2){pos.x, pos.y},
  404e88:	48 8b 4c 24 30       	mov    0x30(%rsp),%rcx
  404e8d:	48 89 4c 24 10       	mov    %rcx,0x10(%rsp)
  404e92:	0f 10 44 24 20       	movups 0x20(%rsp),%xmm0
  404e97:	0f 11 04 24          	movups %xmm0,(%rsp)
  404e9b:	0f 28 05 1e b0 00 00 	movaps 0xb01e(%rip),%xmm0        # 40fec0 <_IO_stdin_used+0xec0>
  404ea2:	f3 0f 2a c0          	cvtsi2ss %eax,%xmm0
  404ea6:	48 89 ee             	mov    %rbp,%rsi
  404ea9:	e8 52 5b 00 00       	call   40aa00 <rdr_add_text>
			(char *)c[0],
			x + 8.7 * SCALED_SIZE, SCALED_SIZE * 2), SCALED_SIZE * 4});
	_draw_text(g, (char *)c[1], (t_vec2i){text_center_x(g->small_font,
  404eae:	48 8b bb 30 03 00 00 	mov    0x330(%rbx),%rdi
  404eb5:	48 8d 2d 62 b0 00 00 	lea    0xb062(%rip),%rbp        # 40ff1e <_IO_stdin_used+0xf1e>
  404ebc:	48 89 ee             	mov    %rbp,%rsi
  404ebf:	ba fc 03 00 00       	mov    $0x3fc,%edx
  404ec4:	b9 80 00 00 00       	mov    $0x80,%ecx
  404ec9:	e8 e2 00 00 00       	call   404fb0 <text_center_x>
	rdr_add_text(game->rdr, str, (t_vec2){pos.x, pos.y},
  404ece:	48 8b 7b 30          	mov    0x30(%rbx),%rdi
		(t_add_text){10, 5, game->small_font, 0x0});
  404ed2:	4c 89 7c 24 20       	mov    %r15,0x20(%rsp)
  404ed7:	48 8b 8b 30 03 00 00 	mov    0x330(%rbx),%rcx
  404ede:	48 89 4c 24 28       	mov    %rcx,0x28(%rsp)
  404ee3:	c7 44 24 30 00 00 00 	movl   $0x0,0x30(%rsp)
  404eea:	00 
	rdr_add_text(game->rdr, str, (t_vec2){pos.x, pos.y},
  404eeb:	48 8b 4c 24 30       	mov    0x30(%rsp),%rcx
  404ef0:	48 89 4c 24 10       	mov    %rcx,0x10(%rsp)
  404ef5:	0f 10 44 24 20       	movups 0x20(%rsp),%xmm0
  404efa:	0f 11 04 24          	movups %xmm0,(%rsp)
  404efe:	0f 28 05 cb af 00 00 	movaps 0xafcb(%rip),%xmm0        # 40fed0 <_IO_stdin_used+0xed0>
  404f05:	f3 0f 2a c0          	cvtsi2ss %eax,%xmm0
  404f09:	48 89 ee             	mov    %rbp,%rsi
  404f0c:	e8 ef 5a 00 00       	call   40aa00 <rdr_add_text>
  404f11:	48 ba 08 00 00 00 0a 	movabs $0xa00000008,%rdx
  404f18:	00 00 00 
			(char *)c[1],
			x + 8.7 * SCALED_SIZE, SCALED_SIZE * 2), SCALED_SIZE * 4.5});
	draw_banner_v(g, (t_vec2i){WIN_WIDTH / 2 - 64 * 4, 0}, (t_vec2i){8, 10});
  404f1b:	be d0 01 00 00       	mov    $0x1d0,%esi
  404f20:	48 89 df             	mov    %rbx,%rdi
  404f23:	e8 98 08 00 00       	call   4057c0 <draw_banner_v>
	btn_update(g, &menu->play);
  404f28:	48 89 df             	mov    %rbx,%rdi
  404f2b:	4c 89 f6             	mov    %r14,%rsi
  404f2e:	e8 5d 02 00 00       	call   405190 <btn_update>
	btn_update(g, &menu->coop);
  404f33:	49 8d 76 30          	lea    0x30(%r14),%rsi
  404f37:	48 89 df             	mov    %rbx,%rdi
  404f3a:	e8 51 02 00 00       	call   405190 <btn_update>
	btn_update(g, &menu->edit);
  404f3f:	49 83 c6 60          	add    $0x60,%r14
  404f43:	48 89 df             	mov    %rbx,%rdi
  404f46:	4c 89 f6             	mov    %r14,%rsi
  404f49:	48 83 c4 38          	add    $0x38,%rsp
  404f4d:	5b                   	pop    %rbx
  404f4e:	41 5c                	pop    %r12
  404f50:	41 5d                	pop    %r13
  404f52:	41 5e                	pop    %r14
  404f54:	41 5f                	pop    %r15
  404f56:	5d                   	pop    %rbp
  404f57:	e9 34 02 00 00       	jmp    405190 <btn_update>
  404f5c:	0f 1f 40 00          	nopl   0x0(%rax)

0000000000404f60 <menu_mouse_click>:
}

void	menu_mouse_click(t_game *game, t_gamemenu *menu, int x, int y)
{
  404f60:	55                   	push   %rbp
  404f61:	41 57                	push   %r15
  404f63:	41 56                	push   %r14
  404f65:	53                   	push   %rbx
  404f66:	50                   	push   %rax
  404f67:	41 89 ce             	mov    %ecx,%r14d
  404f6a:	41 89 d7             	mov    %edx,%r15d
  404f6d:	48 89 f3             	mov    %rsi,%rbx
  404f70:	48 89 fd             	mov    %rdi,%rbp
	btn_click(game, &menu->play, x, y);
  404f73:	e8 78 04 00 00       	call   4053f0 <btn_click>
	btn_click(game, &menu->coop, x, y);
  404f78:	48 8d 73 30          	lea    0x30(%rbx),%rsi
  404f7c:	48 89 ef             	mov    %rbp,%rdi
  404f7f:	44 89 fa             	mov    %r15d,%edx
  404f82:	44 89 f1             	mov    %r14d,%ecx
  404f85:	e8 66 04 00 00       	call   4053f0 <btn_click>
	btn_click(game, &menu->edit, x, y);
  404f8a:	48 83 c3 60          	add    $0x60,%rbx
  404f8e:	48 89 ef             	mov    %rbp,%rdi
  404f91:	48 89 de             	mov    %rbx,%rsi
  404f94:	44 89 fa             	mov    %r15d,%edx
  404f97:	44 89 f1             	mov    %r14d,%ecx
  404f9a:	48 83 c4 08          	add    $0x8,%rsp
  404f9e:	5b                   	pop    %rbx
  404f9f:	41 5e                	pop    %r14
  404fa1:	41 5f                	pop    %r15
  404fa3:	5d                   	pop    %rbp
  404fa4:	e9 47 04 00 00       	jmp    4053f0 <btn_click>
  404fa9:	0f 1f 80 00 00 00 00 	nopl   0x0(%rax)

0000000000404fb0 <text_center_x>:
		return (font->chars[(int) 'A']->height);
	return (0);
}

int	text_center_x(t_font *font, char *s, int px, int pwidth)
{
  404fb0:	55                   	push   %rbp
  404fb1:	41 56                	push   %r14
  404fb3:	53                   	push   %rbx
  404fb4:	89 cd                	mov    %ecx,%ebp
  404fb6:	41 89 d6             	mov    %edx,%r14d
	if (font->chars[(int) 'A'])
  404fb9:	48 8b 87 08 02 00 00 	mov    0x208(%rdi),%rax
  404fc0:	48 85 c0             	test   %rax,%rax
  404fc3:	74 05                	je     404fca <text_center_x+0x1a>
		return (font->chars[(int) 'A']->width);
  404fc5:	8b 58 20             	mov    0x20(%rax),%ebx
  404fc8:	eb 02                	jmp    404fcc <text_center_x+0x1c>
  404fca:	31 db                	xor    %ebx,%ebx
	const int	width = _font_width(font) * ft_strlen(s);
  404fcc:	48 89 f7             	mov    %rsi,%rdi
  404fcf:	e8 8c 83 00 00       	call   40d360 <ft_strlen>
  404fd4:	0f af c3             	imul   %ebx,%eax
	const int	fx = px + pwidth / 2 - width / 2;
  404fd7:	89 e9                	mov    %ebp,%ecx
  404fd9:	c1 e9 1f             	shr    $0x1f,%ecx
  404fdc:	01 e9                	add    %ebp,%ecx
  404fde:	d1 f9                	sar    %ecx
  404fe0:	44 01 f1             	add    %r14d,%ecx
  404fe3:	89 c2                	mov    %eax,%edx
  404fe5:	c1 ea 1f             	shr    $0x1f,%edx
  404fe8:	01 c2                	add    %eax,%edx
  404fea:	d1 fa                	sar    %edx
  404fec:	29 d1                	sub    %edx,%ecx

	return (fx);
  404fee:	89 c8                	mov    %ecx,%eax
  404ff0:	5b                   	pop    %rbx
  404ff1:	41 5e                	pop    %r14
  404ff3:	5d                   	pop    %rbp
  404ff4:	c3                   	ret    
  404ff5:	66 2e 0f 1f 84 00 00 	cs nopw 0x0(%rax,%rax,1)
  404ffc:	00 00 00 
  404fff:	90                   	nop

0000000000405000 <text_center_y>:
	if (font->chars[(int) 'A'])
  405000:	48 8b 87 08 02 00 00 	mov    0x208(%rdi),%rax
  405007:	48 85 c0             	test   %rax,%rax
  40500a:	74 10                	je     40501c <text_center_y+0x1c>
		return (font->chars[(int) 'A']->height);
  40500c:	8b 40 24             	mov    0x24(%rax),%eax
  40500f:	89 c6                	mov    %eax,%esi
  405011:	c1 ee 1f             	shr    $0x1f,%esi
  405014:	01 c6                	add    %eax,%esi
  405016:	d1 fe                	sar    %esi
  405018:	f7 de                	neg    %esi
  40501a:	eb 02                	jmp    40501e <text_center_y+0x1e>
  40501c:	31 f6                	xor    %esi,%esi
}

int	text_center_y(t_font *font, char *s, int py, int pheight)
{
	const int	height = _font_height(font);
	const int	fy = py + pheight / 2 - height / 2;
  40501e:	89 c8                	mov    %ecx,%eax
  405020:	c1 e8 1f             	shr    $0x1f,%eax
  405023:	01 c8                	add    %ecx,%eax
  405025:	d1 f8                	sar    %eax
  405027:	01 d0                	add    %edx,%eax
  405029:	01 f0                	add    %esi,%eax

	(void) s;
	return (fy);
  40502b:	c3                   	ret    
  40502c:	0f 1f 40 00          	nopl   0x0(%rax)

0000000000405030 <menu_new>:
		game->start_time = getms();
	}
}

t_gamemenu	*menu_new(void)
{
  405030:	53                   	push   %rbx
  405031:	48 83 ec 30          	sub    $0x30,%rsp
	const int	x = 1440 / 2 - 4 * SCALED_SIZE / 2;
	t_gamemenu	*menu;

	menu = malloc(sizeof(t_gamemenu));
  405035:	bf 90 00 00 00       	mov    $0x90,%edi
  40503a:	e8 d1 d0 ff ff       	call   402110 <malloc@plt>
  40503f:	48 89 c3             	mov    %rax,%rbx
	menu->play = btn_new_label((t_vec2i){x, 4 * 64}, 4, "Play", play_click);
  405042:	48 8d 0d 01 af 00 00 	lea    0xaf01(%rip),%rcx        # 40ff4a <_IO_stdin_used+0xf4a>
  405049:	4c 8d 05 c0 00 00 00 	lea    0xc0(%rip),%r8        # 405110 <play_click>
  405050:	48 89 e7             	mov    %rsp,%rdi
  405053:	48 be 50 02 00 00 00 	movabs $0x10000000250,%rsi
  40505a:	01 00 00 
  40505d:	ba 04 00 00 00       	mov    $0x4,%edx
  405062:	e8 c9 04 00 00       	call   405530 <btn_new_label>
  405067:	0f 10 04 24          	movups (%rsp),%xmm0
  40506b:	0f 10 4c 24 10       	movups 0x10(%rsp),%xmm1
  405070:	0f 10 54 24 20       	movups 0x20(%rsp),%xmm2
  405075:	0f 11 53 20          	movups %xmm2,0x20(%rbx)
  405079:	0f 11 4b 10          	movups %xmm1,0x10(%rbx)
  40507d:	0f 11 03             	movups %xmm0,(%rbx)
	menu->coop = btn_new_label((t_vec2i){x, 6 * 64}, 4, "2 Player",
  405080:	48 8d 0d c8 ae 00 00 	lea    0xaec8(%rip),%rcx        # 40ff4f <_IO_stdin_used+0xf4f>
  405087:	4c 8d 05 a2 00 00 00 	lea    0xa2(%rip),%r8        # 405130 <coop_click>
  40508e:	48 89 e7             	mov    %rsp,%rdi
  405091:	48 be 50 02 00 00 80 	movabs $0x18000000250,%rsi
  405098:	01 00 00 
  40509b:	ba 04 00 00 00       	mov    $0x4,%edx
  4050a0:	e8 8b 04 00 00       	call   405530 <btn_new_label>
  4050a5:	0f 10 04 24          	movups (%rsp),%xmm0
  4050a9:	0f 10 4c 24 10       	movups 0x10(%rsp),%xmm1
  4050ae:	0f 10 54 24 20       	movups 0x20(%rsp),%xmm2
  4050b3:	0f 11 53 50          	movups %xmm2,0x50(%rbx)
  4050b7:	0f 11 4b 40          	movups %xmm1,0x40(%rbx)
  4050bb:	0f 11 43 30          	movups %xmm0,0x30(%rbx)
			coop_click);
	menu->edit = btn_new_label((t_vec2i){x, 8 * 64}, 4, "Edit", edit_click);
  4050bf:	48 8d 0d 92 ae 00 00 	lea    0xae92(%rip),%rcx        # 40ff58 <_IO_stdin_used+0xf58>
  4050c6:	4c 8d 05 b3 00 00 00 	lea    0xb3(%rip),%r8        # 405180 <edit_click>
  4050cd:	48 89 e7             	mov    %rsp,%rdi
  4050d0:	48 be 50 02 00 00 00 	movabs $0x20000000250,%rsi
  4050d7:	02 00 00 
  4050da:	ba 04 00 00 00       	mov    $0x4,%edx
  4050df:	e8 4c 04 00 00       	call   405530 <btn_new_label>
  4050e4:	0f 10 04 24          	movups (%rsp),%xmm0
  4050e8:	0f 10 4c 24 10       	movups 0x10(%rsp),%xmm1
  4050ed:	0f 10 54 24 20       	movups 0x20(%rsp),%xmm2
  4050f2:	0f 11 93 80 00 00 00 	movups %xmm2,0x80(%rbx)
  4050f9:	0f 11 4b 70          	movups %xmm1,0x70(%rbx)
  4050fd:	0f 11 43 60          	movups %xmm0,0x60(%rbx)
	return (menu);
  405101:	48 89 d8             	mov    %rbx,%rax
  405104:	48 83 c4 30          	add    $0x30,%rsp
  405108:	5b                   	pop    %rbx
  405109:	c3                   	ret    
  40510a:	66 0f 1f 44 00 00    	nopw   0x0(%rax,%rax,1)

0000000000405110 <play_click>:
{
  405110:	53                   	push   %rbx
	if (game->map_valid)
  405111:	80 7f 58 00          	cmpb   $0x0,0x58(%rdi)
  405115:	74 13                	je     40512a <play_click+0x1a>
  405117:	48 89 fb             	mov    %rdi,%rbx
		game->menu_opened = false;
  40511a:	c6 47 68 00          	movb   $0x0,0x68(%rdi)
		game->start_time = getms();
  40511e:	e8 5d 15 00 00       	call   406680 <getms>
  405123:	48 89 83 18 03 00 00 	mov    %rax,0x318(%rbx)
}
  40512a:	5b                   	pop    %rbx
  40512b:	c3                   	ret    
  40512c:	0f 1f 40 00          	nopl   0x0(%rax)

0000000000405130 <coop_click>:
{
  405130:	41 56                	push   %r14
  405132:	53                   	push   %rbx
  405133:	50                   	push   %rax
	if (game->map_valid)
  405134:	80 7f 58 00          	cmpb   $0x0,0x58(%rdi)
  405138:	74 3c                	je     405176 <coop_click+0x46>
  40513a:	48 89 fb             	mov    %rdi,%rbx
		game->menu_opened = false;
  40513d:	c6 47 68 00          	movb   $0x0,0x68(%rdi)
		game->player2 = add_entity(&game->entities,
  405141:	4c 8d 77 20          	lea    0x20(%rdi),%r14
				player_new(game, game->player->pos, game->player->level, true));
  405145:	48 8b 47 40          	mov    0x40(%rdi),%rax
  405149:	8b 70 6c             	mov    0x6c(%rax),%esi
  40514c:	f2 0f 10 40 0c       	movsd  0xc(%rax),%xmm0
  405151:	ba 01 00 00 00       	mov    $0x1,%edx
  405156:	e8 15 43 00 00       	call   409470 <player_new>
		game->player2 = add_entity(&game->entities,
  40515b:	4c 89 f7             	mov    %r14,%rdi
  40515e:	48 89 c6             	mov    %rax,%rsi
  405161:	e8 aa 0d 00 00       	call   405f10 <add_entity>
  405166:	48 89 43 48          	mov    %rax,0x48(%rbx)
		game->start_time = getms();
  40516a:	e8 11 15 00 00       	call   406680 <getms>
  40516f:	48 89 83 18 03 00 00 	mov    %rax,0x318(%rbx)
}
  405176:	48 83 c4 08          	add    $0x8,%rsp
  40517a:	5b                   	pop    %rbx
  40517b:	41 5e                	pop    %r14
  40517d:	c3                   	ret    
  40517e:	66 90                	xchg   %ax,%ax

0000000000405180 <edit_click>:
	game->editor_mode = true;
  405180:	c6 87 70 01 00 00 01 	movb   $0x1,0x170(%rdi)
	game->menu_opened = false;
  405187:	c6 47 68 00          	movb   $0x0,0x68(%rdi)
}
  40518b:	c3                   	ret    
  40518c:	0f 1f 40 00          	nopl   0x0(%rax)

0000000000405190 <btn_update>:
		rdr_add_sprite(game->rdr, btn->img, (t_vec2){btn->x, btn->y},
			(t_add_sprite){3, 5, false, false});
}

void	btn_update(t_game *game, t_btn *btn)
{
  405190:	55                   	push   %rbp
  405191:	41 57                	push   %r15
  405193:	41 56                	push   %r14
  405195:	41 55                	push   %r13
  405197:	41 54                	push   %r12
  405199:	53                   	push   %rbx
  40519a:	48 83 ec 58          	sub    $0x58,%rsp
  40519e:	49 89 f5             	mov    %rsi,%r13
  4051a1:	49 89 fe             	mov    %rdi,%r14
  4051a4:	49 bf 02 00 00 00 05 	movabs $0x500000002,%r15
  4051ab:	00 00 00 
	int			mx;
	int			my;

	mlx_mouse_get_pos(game->mlx, game->win, &mx, &my);
  4051ae:	48 8b 3f             	mov    (%rdi),%rdi
  4051b1:	49 8b 76 08          	mov    0x8(%r14),%rsi
  4051b5:	48 8d 54 24 24       	lea    0x24(%rsp),%rdx
  4051ba:	48 8d 4c 24 20       	lea    0x20(%rsp),%rcx
  4051bf:	e8 9c 7f 00 00       	call   40d160 <mlx_mouse_get_pos>
	if (btn->size > 1)
  4051c4:	41 83 7d 08 02       	cmpl   $0x2,0x8(%r13)
  4051c9:	4d 8b 66 30          	mov    0x30(%r14),%r12
  4051cd:	0f 8c c2 00 00 00    	jl     405295 <btn_update+0x105>
	rdr_add_sprite(game->rdr, sp(game)[SP_BTN_LEFT],
  4051d3:	4c 89 f7             	mov    %r14,%rdi
  4051d6:	e8 05 f4 ff ff       	call   4045e0 <sp>
  4051db:	48 8b b0 d0 01 00 00 	mov    0x1d0(%rax),%rsi
		(t_vec2){btn->x, btn->y},
  4051e2:	f3 41 0f 2a 45 00    	cvtsi2ssl 0x0(%r13),%xmm0
  4051e8:	f3 41 0f 2a 4d 04    	cvtsi2ssl 0x4(%r13),%xmm1
	rdr_add_sprite(game->rdr, sp(game)[SP_BTN_LEFT],
  4051ee:	0f 14 c1             	unpcklps %xmm1,%xmm0
  4051f1:	31 ed                	xor    %ebp,%ebp
  4051f3:	4c 89 e7             	mov    %r12,%rdi
  4051f6:	4c 89 fa             	mov    %r15,%rdx
  4051f9:	31 c9                	xor    %ecx,%ecx
  4051fb:	e8 20 57 00 00       	call   40a920 <rdr_add_sprite>
	while (++i < btn->size - 2)
  405200:	41 83 7d 08 03       	cmpl   $0x3,0x8(%r13)
  405205:	7c 53                	jl     40525a <btn_update+0xca>
  405207:	bb 40 00 00 00       	mov    $0x40,%ebx
  40520c:	0f 1f 40 00          	nopl   0x0(%rax)
		rdr_add_sprite(game->rdr, sp(game)[SP_BTN_MID],
  405210:	4d 8b 66 30          	mov    0x30(%r14),%r12
  405214:	4c 89 f7             	mov    %r14,%rdi
  405217:	e8 c4 f3 ff ff       	call   4045e0 <sp>
  40521c:	48 8b b0 d8 01 00 00 	mov    0x1d8(%rax),%rsi
  405223:	41 8b 45 00          	mov    0x0(%r13),%eax
			(t_vec2){btn->x + (1 + i) * SCALED_SIZE, btn->y},
  405227:	01 d8                	add    %ebx,%eax
  405229:	0f 57 c0             	xorps  %xmm0,%xmm0
  40522c:	f3 0f 2a c0          	cvtsi2ss %eax,%xmm0
  405230:	0f 57 c9             	xorps  %xmm1,%xmm1
  405233:	f3 41 0f 2a 4d 04    	cvtsi2ssl 0x4(%r13),%xmm1
		rdr_add_sprite(game->rdr, sp(game)[SP_BTN_MID],
  405239:	0f 14 c1             	unpcklps %xmm1,%xmm0
  40523c:	4c 89 e7             	mov    %r12,%rdi
  40523f:	4c 89 fa             	mov    %r15,%rdx
  405242:	31 c9                	xor    %ecx,%ecx
  405244:	e8 d7 56 00 00       	call   40a920 <rdr_add_sprite>
	while (++i < btn->size - 2)
  405249:	83 c5 01             	add    $0x1,%ebp
  40524c:	41 8b 45 08          	mov    0x8(%r13),%eax
  405250:	83 c0 fe             	add    $0xfffffffe,%eax
  405253:	83 c3 40             	add    $0x40,%ebx
  405256:	39 c5                	cmp    %eax,%ebp
  405258:	7c b6                	jl     405210 <btn_update+0x80>
	rdr_add_sprite(game->rdr, sp(game)[SP_BTN_RIGHT],
  40525a:	49 8b 5e 30          	mov    0x30(%r14),%rbx
  40525e:	4c 89 f7             	mov    %r14,%rdi
  405261:	e8 7a f3 ff ff       	call   4045e0 <sp>
  405266:	48 8b b0 e0 01 00 00 	mov    0x1e0(%rax),%rsi
		(t_vec2){btn->x + (btn->size - 1) * SCALED_SIZE, btn->y},
  40526d:	41 8b 45 00          	mov    0x0(%r13),%eax
  405271:	41 8b 4d 08          	mov    0x8(%r13),%ecx
  405275:	c1 e1 06             	shl    $0x6,%ecx
  405278:	01 c8                	add    %ecx,%eax
  40527a:	83 c0 c0             	add    $0xffffffc0,%eax
  40527d:	0f 57 c0             	xorps  %xmm0,%xmm0
  405280:	f3 0f 2a c0          	cvtsi2ss %eax,%xmm0
  405284:	0f 57 c9             	xorps  %xmm1,%xmm1
  405287:	f3 41 0f 2a 4d 04    	cvtsi2ssl 0x4(%r13),%xmm1
	rdr_add_sprite(game->rdr, sp(game)[SP_BTN_RIGHT],
  40528d:	0f 14 c1             	unpcklps %xmm1,%xmm0
  405290:	48 89 df             	mov    %rbx,%rdi
  405293:	eb 2b                	jmp    4052c0 <btn_update+0x130>
		rdr_add_sprite(game->rdr, _get_tile(game, 0, btn->pressed),
  405295:	41 0f b6 5d 28       	movzbl 0x28(%r13),%ebx
  40529a:	4c 89 f7             	mov    %r14,%rdi
  40529d:	e8 3e f3 ff ff       	call   4045e0 <sp>
	if (i == 0 && !pressed)
  4052a2:	48 c1 e3 05          	shl    $0x5,%rbx
  4052a6:	48 8b b4 03 e8 01 00 	mov    0x1e8(%rbx,%rax,1),%rsi
  4052ad:	00 
			(t_vec2){btn->x, btn->y}, (t_add_sprite){2, 5, false, false});
  4052ae:	f3 41 0f 2a 45 00    	cvtsi2ssl 0x0(%r13),%xmm0
  4052b4:	f3 41 0f 2a 4d 04    	cvtsi2ssl 0x4(%r13),%xmm1
		rdr_add_sprite(game->rdr, _get_tile(game, 0, btn->pressed),
  4052ba:	0f 14 c1             	unpcklps %xmm1,%xmm0
  4052bd:	4c 89 e7             	mov    %r12,%rdi
  4052c0:	4c 89 fa             	mov    %r15,%rdx
  4052c3:	31 c9                	xor    %ecx,%ecx
  4052c5:	e8 56 56 00 00       	call   40a920 <rdr_add_sprite>
	if (btn->label)
  4052ca:	4d 8b 65 10          	mov    0x10(%r13),%r12
  4052ce:	4d 85 e4             	test   %r12,%r12
  4052d1:	0f 84 9b 00 00 00    	je     405372 <btn_update+0x1e2>
		rdr_add_text(game->rdr, btn->label, (t_vec2){
  4052d7:	4d 8b 7e 30          	mov    0x30(%r14),%r15
			text_center_x(game->font, btn->label, btn->x, btn->size * 64) - 14,
  4052db:	49 8b be 28 03 00 00 	mov    0x328(%r14),%rdi
  4052e2:	41 8b 55 00          	mov    0x0(%r13),%edx
  4052e6:	41 8b 4d 08          	mov    0x8(%r13),%ecx
  4052ea:	c1 e1 06             	shl    $0x6,%ecx
  4052ed:	4c 89 e6             	mov    %r12,%rsi
  4052f0:	e8 bb fc ff ff       	call   404fb0 <text_center_x>
  4052f5:	83 c0 f2             	add    $0xfffffff2,%eax
  4052f8:	0f 57 c0             	xorps  %xmm0,%xmm0
  4052fb:	f3 0f 2a c0          	cvtsi2ss %eax,%xmm0
  4052ff:	0f 29 44 24 40       	movaps %xmm0,0x40(%rsp)
			text_center_y(game->font, btn->label, btn->y, 64) - 8},
  405304:	49 8b be 28 03 00 00 	mov    0x328(%r14),%rdi
  40530b:	49 8b 75 10          	mov    0x10(%r13),%rsi
  40530f:	41 8b 55 04          	mov    0x4(%r13),%edx
  405313:	b9 40 00 00 00       	mov    $0x40,%ecx
  405318:	e8 e3 fc ff ff       	call   405000 <text_center_y>
  40531d:	83 c0 f8             	add    $0xfffffff8,%eax
  405320:	0f 57 c9             	xorps  %xmm1,%xmm1
  405323:	f3 0f 2a c8          	cvtsi2ss %eax,%xmm1
  405327:	0f 28 44 24 40       	movaps 0x40(%rsp),%xmm0
		rdr_add_text(game->rdr, btn->label, (t_vec2){
  40532c:	0f 14 c1             	unpcklps %xmm1,%xmm0
  40532f:	48 b8 03 00 00 00 05 	movabs $0x500000003,%rax
  405336:	00 00 00 
			(t_add_text){3, 5, game->font, 0x0});
  405339:	48 89 44 24 28       	mov    %rax,0x28(%rsp)
  40533e:	49 8b 86 28 03 00 00 	mov    0x328(%r14),%rax
  405345:	48 89 44 24 30       	mov    %rax,0x30(%rsp)
  40534a:	c7 44 24 38 00 00 00 	movl   $0x0,0x38(%rsp)
  405351:	00 
		rdr_add_text(game->rdr, btn->label, (t_vec2){
  405352:	48 8b 44 24 38       	mov    0x38(%rsp),%rax
  405357:	48 89 44 24 10       	mov    %rax,0x10(%rsp)
  40535c:	0f 10 4c 24 28       	movups 0x28(%rsp),%xmm1
  405361:	0f 11 0c 24          	movups %xmm1,(%rsp)
  405365:	4c 89 ff             	mov    %r15,%rdi
  405368:	4c 89 e6             	mov    %r12,%rsi
  40536b:	e8 90 56 00 00       	call   40aa00 <rdr_add_text>
  405370:	eb 30                	jmp    4053a2 <btn_update+0x212>
	else if (btn->img)
  405372:	49 8b 75 18          	mov    0x18(%r13),%rsi
  405376:	48 85 f6             	test   %rsi,%rsi
  405379:	74 27                	je     4053a2 <btn_update+0x212>
		rdr_add_sprite(game->rdr, btn->img, (t_vec2){btn->x, btn->y},
  40537b:	0f 57 c0             	xorps  %xmm0,%xmm0
  40537e:	f3 41 0f 2a 45 00    	cvtsi2ssl 0x0(%r13),%xmm0
  405384:	0f 57 c9             	xorps  %xmm1,%xmm1
  405387:	f3 41 0f 2a 4d 04    	cvtsi2ssl 0x4(%r13),%xmm1
  40538d:	49 8b 7e 30          	mov    0x30(%r14),%rdi
  405391:	0f 14 c1             	unpcklps %xmm1,%xmm0
  405394:	49 83 c7 01          	add    $0x1,%r15
  405398:	4c 89 fa             	mov    %r15,%rdx
  40539b:	31 c9                	xor    %ecx,%ecx
  40539d:	e8 7e 55 00 00       	call   40a920 <rdr_add_sprite>
	_draw_button(game, btn);
	if (mx >= btn->x && mx <= btn->x + btn->size * SCALED_SIZE
  4053a2:	8b 44 24 24          	mov    0x24(%rsp),%eax
  4053a6:	41 8b 75 00          	mov    0x0(%r13),%esi
  4053aa:	39 f0                	cmp    %esi,%eax
  4053ac:	7c 2a                	jl     4053d8 <btn_update+0x248>
  4053ae:	41 8b 4d 08          	mov    0x8(%r13),%ecx
  4053b2:	89 ca                	mov    %ecx,%edx
  4053b4:	c1 e2 06             	shl    $0x6,%edx
  4053b7:	01 f2                	add    %esi,%edx
  4053b9:	39 d0                	cmp    %edx,%eax
		&& my >= btn->y && my <= btn->y + SCALED_SIZE)
  4053bb:	7f 1b                	jg     4053d8 <btn_update+0x248>
  4053bd:	8b 44 24 20          	mov    0x20(%rsp),%eax
  4053c1:	41 8b 55 04          	mov    0x4(%r13),%edx
  4053c5:	39 d0                	cmp    %edx,%eax
  4053c7:	7c 0f                	jl     4053d8 <btn_update+0x248>
  4053c9:	8d 7a 40             	lea    0x40(%rdx),%edi
  4053cc:	39 f8                	cmp    %edi,%eax
  4053ce:	7f 08                	jg     4053d8 <btn_update+0x248>
		draw_hl(game, btn->x, btn->y, btn->size);
  4053d0:	4c 89 f7             	mov    %r14,%rdi
  4053d3:	e8 48 00 00 00       	call   405420 <draw_hl>
}
  4053d8:	48 83 c4 58          	add    $0x58,%rsp
  4053dc:	5b                   	pop    %rbx
  4053dd:	41 5c                	pop    %r12
  4053df:	41 5d                	pop    %r13
  4053e1:	41 5e                	pop    %r14
  4053e3:	41 5f                	pop    %r15
  4053e5:	5d                   	pop    %rbp
  4053e6:	c3                   	ret    
  4053e7:	66 0f 1f 84 00 00 00 	nopw   0x0(%rax,%rax,1)
  4053ee:	00 00 

00000000004053f0 <btn_click>:

void	btn_click(t_game *game, t_btn *btn, int mx, int my)
{
	if (mx >= btn->x && mx <= btn->x + btn->size * SCALED_SIZE
  4053f0:	44 8b 06             	mov    (%rsi),%r8d
  4053f3:	41 39 d0             	cmp    %edx,%r8d
  4053f6:	7f 1e                	jg     405416 <btn_click+0x26>
  4053f8:	8b 46 08             	mov    0x8(%rsi),%eax
  4053fb:	c1 e0 06             	shl    $0x6,%eax
  4053fe:	44 01 c0             	add    %r8d,%eax
  405401:	39 d0                	cmp    %edx,%eax
		&& my >= btn->y && my <= btn->y + SCALED_SIZE)
  405403:	7c 11                	jl     405416 <btn_click+0x26>
  405405:	8b 46 04             	mov    0x4(%rsi),%eax
  405408:	39 c8                	cmp    %ecx,%eax
  40540a:	7f 0a                	jg     405416 <btn_click+0x26>
  40540c:	83 c0 40             	add    $0x40,%eax
  40540f:	39 c8                	cmp    %ecx,%eax
  405411:	7c 03                	jl     405416 <btn_click+0x26>
		btn->click(game);
  405413:	ff 66 20             	jmp    *0x20(%rsi)
}
  405416:	c3                   	ret    
  405417:	66 0f 1f 84 00 00 00 	nopw   0x0(%rax,%rax,1)
  40541e:	00 00 

0000000000405420 <draw_hl>:
/* ************************************************************************** */

#include "so_long.h"

void	draw_hl(t_game *game, int x, int y, int size)
{
  405420:	55                   	push   %rbp
  405421:	41 57                	push   %r15
  405423:	41 56                	push   %r14
  405425:	41 55                	push   %r13
  405427:	41 54                	push   %r12
  405429:	53                   	push   %rbx
  40542a:	48 83 ec 38          	sub    $0x38,%rsp
  40542e:	41 89 cc             	mov    %ecx,%r12d
  405431:	41 89 d7             	mov    %edx,%r15d
  405434:	41 89 f5             	mov    %esi,%r13d
  405437:	48 89 fb             	mov    %rdi,%rbx
	const int	s = size * SCALED_SIZE;
  40543a:	41 c1 e4 06          	shl    $0x6,%r12d

	rdr_add_sprite(game->rdr, sp(game)[SP_HL_TL],
  40543e:	48 8b 6f 30          	mov    0x30(%rdi),%rbp
  405442:	e8 99 f1 ff ff       	call   4045e0 <sp>
  405447:	48 8b b0 18 02 00 00 	mov    0x218(%rax),%rsi
		(t_vec2){x - 32, y - 32}, (t_add_sprite){6, 5, false, false});
  40544e:	41 8d 45 e0          	lea    -0x20(%r13),%eax
  405452:	f3 0f 2a c0          	cvtsi2ss %eax,%xmm0
  405456:	0f 29 44 24 20       	movaps %xmm0,0x20(%rsp)
  40545b:	41 8d 47 e0          	lea    -0x20(%r15),%eax
  40545f:	f3 0f 2a c8          	cvtsi2ss %eax,%xmm1
  405463:	0f 29 0c 24          	movaps %xmm1,(%rsp)
	rdr_add_sprite(game->rdr, sp(game)[SP_HL_TL],
  405467:	0f 14 c1             	unpcklps %xmm1,%xmm0
  40546a:	49 be 06 00 00 00 05 	movabs $0x500000006,%r14
  405471:	00 00 00 
  405474:	48 89 ef             	mov    %rbp,%rdi
  405477:	4c 89 f2             	mov    %r14,%rdx
  40547a:	31 c9                	xor    %ecx,%ecx
  40547c:	e8 9f 54 00 00       	call   40a920 <rdr_add_sprite>
	rdr_add_sprite(game->rdr, sp(game)[SP_HL_TR],
  405481:	48 8b 6b 30          	mov    0x30(%rbx),%rbp
  405485:	48 89 df             	mov    %rbx,%rdi
  405488:	e8 53 f1 ff ff       	call   4045e0 <sp>
  40548d:	48 8b b0 20 02 00 00 	mov    0x220(%rax),%rsi
		(t_vec2){x - 32 + s, y - 32}, (t_add_sprite){6, 5, false, false});
  405494:	43 8d 04 2c          	lea    (%r12,%r13,1),%eax
  405498:	83 c0 e0             	add    $0xffffffe0,%eax
  40549b:	0f 57 c0             	xorps  %xmm0,%xmm0
  40549e:	f3 0f 2a c0          	cvtsi2ss %eax,%xmm0
  4054a2:	0f 29 44 24 10       	movaps %xmm0,0x10(%rsp)
	rdr_add_sprite(game->rdr, sp(game)[SP_HL_TR],
  4054a7:	0f 14 04 24          	unpcklps (%rsp),%xmm0
  4054ab:	48 89 ef             	mov    %rbp,%rdi
  4054ae:	4c 89 f2             	mov    %r14,%rdx
  4054b1:	31 c9                	xor    %ecx,%ecx
  4054b3:	e8 68 54 00 00       	call   40a920 <rdr_add_sprite>
	rdr_add_sprite(game->rdr, sp(game)[SP_HL_BL],
  4054b8:	48 8b 6b 30          	mov    0x30(%rbx),%rbp
  4054bc:	48 89 df             	mov    %rbx,%rdi
  4054bf:	e8 1c f1 ff ff       	call   4045e0 <sp>
  4054c4:	48 8b b0 28 02 00 00 	mov    0x228(%rax),%rsi
		(t_vec2){x - 32, y - 32 + SCALED_SIZE}, (t_add_sprite){6, 5,
  4054cb:	41 83 c7 20          	add    $0x20,%r15d
  4054cf:	0f 57 c9             	xorps  %xmm1,%xmm1
  4054d2:	f3 41 0f 2a cf       	cvtsi2ss %r15d,%xmm1
  4054d7:	0f 29 0c 24          	movaps %xmm1,(%rsp)
  4054db:	0f 28 44 24 20       	movaps 0x20(%rsp),%xmm0
	rdr_add_sprite(game->rdr, sp(game)[SP_HL_BL],
  4054e0:	0f 14 c1             	unpcklps %xmm1,%xmm0
  4054e3:	48 89 ef             	mov    %rbp,%rdi
  4054e6:	4c 89 f2             	mov    %r14,%rdx
  4054e9:	31 c9                	xor    %ecx,%ecx
  4054eb:	e8 30 54 00 00       	call   40a920 <rdr_add_sprite>
		false, false});
	rdr_add_sprite(game->rdr, sp(game)[SP_HL_BR],
  4054f0:	48 8b 6b 30          	mov    0x30(%rbx),%rbp
  4054f4:	48 89 df             	mov    %rbx,%rdi
  4054f7:	e8 e4 f0 ff ff       	call   4045e0 <sp>
  4054fc:	48 8b b0 30 02 00 00 	mov    0x230(%rax),%rsi
  405503:	0f 28 44 24 10       	movaps 0x10(%rsp),%xmm0
  405508:	0f 14 04 24          	unpcklps (%rsp),%xmm0
  40550c:	48 89 ef             	mov    %rbp,%rdi
  40550f:	4c 89 f2             	mov    %r14,%rdx
  405512:	31 c9                	xor    %ecx,%ecx
  405514:	48 83 c4 38          	add    $0x38,%rsp
  405518:	5b                   	pop    %rbx
  405519:	41 5c                	pop    %r12
  40551b:	41 5d                	pop    %r13
  40551d:	41 5e                	pop    %r14
  40551f:	41 5f                	pop    %r15
  405521:	5d                   	pop    %rbp
  405522:	e9 f9 53 00 00       	jmp    40a920 <rdr_add_sprite>
  405527:	66 0f 1f 84 00 00 00 	nopw   0x0(%rax,%rax,1)
  40552e:	00 00 

0000000000405530 <btn_new_label>:
		(t_vec2){x - 32 + s, y - 32 + 64}, (t_add_sprite){6, 5, false, false});
}

t_btn	btn_new_label(t_vec2i pos, int size, char *label, t_click click)
{
  405530:	48 89 f8             	mov    %rdi,%rax
	return ((t_btn){pos.x, pos.y, size, label, NULL, click, false, false});
  405533:	89 37                	mov    %esi,(%rdi)
  405535:	48 c1 ee 20          	shr    $0x20,%rsi
  405539:	89 77 04             	mov    %esi,0x4(%rdi)
  40553c:	89 57 08             	mov    %edx,0x8(%rdi)
  40553f:	48 89 4f 10          	mov    %rcx,0x10(%rdi)
  405543:	48 c7 47 18 00 00 00 	movq   $0x0,0x18(%rdi)
  40554a:	00 
  40554b:	4c 89 47 20          	mov    %r8,0x20(%rdi)
  40554f:	66 c7 47 28 00 00    	movw   $0x0,0x28(%rdi)
  405555:	c3                   	ret    
  405556:	66 2e 0f 1f 84 00 00 	cs nopw 0x0(%rax,%rax,1)
  40555d:	00 00 00 

0000000000405560 <btn_new_img>:
}

t_btn	btn_new_img(t_vec2i pos, int size, t_img *img, t_click click)
{
  405560:	48 89 f8             	mov    %rdi,%rax
	return ((t_btn){pos.x, pos.y, size, NULL, img, click, false, false});
  405563:	89 37                	mov    %esi,(%rdi)
  405565:	48 c1 ee 20          	shr    $0x20,%rsi
  405569:	89 77 04             	mov    %esi,0x4(%rdi)
  40556c:	89 57 08             	mov    %edx,0x8(%rdi)
  40556f:	48 c7 47 10 00 00 00 	movq   $0x0,0x10(%rdi)
  405576:	00 
  405577:	48 89 4f 18          	mov    %rcx,0x18(%rdi)
  40557b:	4c 89 47 20          	mov    %r8,0x20(%rdi)
  40557f:	66 c7 47 28 00 00    	movw   $0x0,0x28(%rdi)
  405585:	c3                   	ret    
  405586:	66 2e 0f 1f 84 00 00 	cs nopw 0x0(%rax,%rax,1)
  40558d:	00 00 00 

0000000000405590 <draw_banner_h>:
		(t_draw_inter){size.x - 2, imgs->mid_index});
	draw_right(game, pos, size, imgs);
}

void	draw_banner_h(t_game *g, t_vec2i pos, t_vec2i size)
{
  405590:	41 57                	push   %r15
  405592:	41 56                	push   %r14
  405594:	53                   	push   %rbx
  405595:	48 83 ec 60          	sub    $0x60,%rsp
  405599:	49 89 d6             	mov    %rdx,%r14
  40559c:	49 89 f7             	mov    %rsi,%r15
  40559f:	48 89 fb             	mov    %rdi,%rbx
	const struct s_images	imgs = {sp(g)[SP_BNR_TL], sp(g)[SP_BNR_T],
  4055a2:	e8 39 f0 ff ff       	call   4045e0 <sp>
  4055a7:	48 8b 80 38 02 00 00 	mov    0x238(%rax),%rax
  4055ae:	48 89 44 24 08       	mov    %rax,0x8(%rsp)
  4055b3:	48 89 df             	mov    %rbx,%rdi
  4055b6:	e8 25 f0 ff ff       	call   4045e0 <sp>
  4055bb:	48 8b 80 40 02 00 00 	mov    0x240(%rax),%rax
  4055c2:	48 89 44 24 10       	mov    %rax,0x10(%rsp)
		sp(g)[SP_BNR_TR], sp(g)[SP_BNR_L], sp(g)[SP_BNR_M], sp(g)[SP_BNR_R],
  4055c7:	48 89 df             	mov    %rbx,%rdi
  4055ca:	e8 11 f0 ff ff       	call   4045e0 <sp>
  4055cf:	48 8b 80 48 02 00 00 	mov    0x248(%rax),%rax
	const struct s_images	imgs = {sp(g)[SP_BNR_TL], sp(g)[SP_BNR_T],
  4055d6:	48 89 44 24 18       	mov    %rax,0x18(%rsp)
		sp(g)[SP_BNR_TR], sp(g)[SP_BNR_L], sp(g)[SP_BNR_M], sp(g)[SP_BNR_R],
  4055db:	48 89 df             	mov    %rbx,%rdi
  4055de:	e8 fd ef ff ff       	call   4045e0 <sp>
  4055e3:	48 8b 80 50 02 00 00 	mov    0x250(%rax),%rax
	const struct s_images	imgs = {sp(g)[SP_BNR_TL], sp(g)[SP_BNR_T],
  4055ea:	48 89 44 24 20       	mov    %rax,0x20(%rsp)
		sp(g)[SP_BNR_TR], sp(g)[SP_BNR_L], sp(g)[SP_BNR_M], sp(g)[SP_BNR_R],
  4055ef:	48 89 df             	mov    %rbx,%rdi
  4055f2:	e8 e9 ef ff ff       	call   4045e0 <sp>
  4055f7:	48 8b 80 58 02 00 00 	mov    0x258(%rax),%rax
	const struct s_images	imgs = {sp(g)[SP_BNR_TL], sp(g)[SP_BNR_T],
  4055fe:	48 89 44 24 28       	mov    %rax,0x28(%rsp)
		sp(g)[SP_BNR_TR], sp(g)[SP_BNR_L], sp(g)[SP_BNR_M], sp(g)[SP_BNR_R],
  405603:	48 89 df             	mov    %rbx,%rdi
  405606:	e8 d5 ef ff ff       	call   4045e0 <sp>
  40560b:	48 8b 80 60 02 00 00 	mov    0x260(%rax),%rax
	const struct s_images	imgs = {sp(g)[SP_BNR_TL], sp(g)[SP_BNR_T],
  405612:	48 89 44 24 30       	mov    %rax,0x30(%rsp)
		sp(g)[SP_BNR_BL], sp(g)[SP_BNR_B], sp(g)[SP_BNR_BR],
  405617:	48 89 df             	mov    %rbx,%rdi
  40561a:	e8 c1 ef ff ff       	call   4045e0 <sp>
  40561f:	48 8b 80 68 02 00 00 	mov    0x268(%rax),%rax
	const struct s_images	imgs = {sp(g)[SP_BNR_TL], sp(g)[SP_BNR_T],
  405626:	48 89 44 24 38       	mov    %rax,0x38(%rsp)
		sp(g)[SP_BNR_BL], sp(g)[SP_BNR_B], sp(g)[SP_BNR_BR],
  40562b:	48 89 df             	mov    %rbx,%rdi
  40562e:	e8 ad ef ff ff       	call   4045e0 <sp>
  405633:	48 8b 80 70 02 00 00 	mov    0x270(%rax),%rax
	const struct s_images	imgs = {sp(g)[SP_BNR_TL], sp(g)[SP_BNR_T],
  40563a:	48 89 44 24 40       	mov    %rax,0x40(%rsp)
		sp(g)[SP_BNR_BL], sp(g)[SP_BNR_B], sp(g)[SP_BNR_BR],
  40563f:	48 89 df             	mov    %rbx,%rdi
  405642:	e8 99 ef ff ff       	call   4045e0 <sp>
  405647:	48 8b 80 78 02 00 00 	mov    0x278(%rax),%rax
	const struct s_images	imgs = {sp(g)[SP_BNR_TL], sp(g)[SP_BNR_T],
  40564e:	48 89 44 24 48       	mov    %rax,0x48(%rsp)
  405653:	48 b8 01 00 00 00 01 	movabs $0x100000001,%rax
  40565a:	00 00 00 
  40565d:	48 89 44 24 50       	mov    %rax,0x50(%rsp)
  405662:	c7 44 24 58 01 00 00 	movl   $0x1,0x58(%rsp)
  405669:	00 
  40566a:	48 8d 4c 24 08       	lea    0x8(%rsp),%rcx
		1, 1, 1};

	_draw_banner(g, pos, size, &imgs);
  40566f:	48 89 df             	mov    %rbx,%rdi
  405672:	4c 89 fe             	mov    %r15,%rsi
  405675:	4c 89 f2             	mov    %r14,%rdx
  405678:	e8 13 00 00 00       	call   405690 <_draw_banner>
}
  40567d:	48 83 c4 60          	add    $0x60,%rsp
  405681:	5b                   	pop    %rbx
  405682:	41 5e                	pop    %r14
  405684:	41 5f                	pop    %r15
  405686:	c3                   	ret    
  405687:	66 0f 1f 84 00 00 00 	nopw   0x0(%rax,%rax,1)
  40568e:	00 00 

0000000000405690 <_draw_banner>:
{
  405690:	55                   	push   %rbp
  405691:	41 57                	push   %r15
  405693:	41 56                	push   %r14
  405695:	41 55                	push   %r13
  405697:	41 54                	push   %r12
  405699:	53                   	push   %rbx
  40569a:	48 83 ec 38          	sub    $0x38,%rsp
  40569e:	48 89 cb             	mov    %rcx,%rbx
  4056a1:	49 89 d6             	mov    %rdx,%r14
  4056a4:	48 89 f5             	mov    %rsi,%rbp
  4056a7:	48 89 f0             	mov    %rsi,%rax
  4056aa:	48 c1 e8 20          	shr    $0x20,%rax
  4056ae:	48 89 44 24 10       	mov    %rax,0x10(%rsp)
  4056b3:	48 89 d0             	mov    %rdx,%rax
  4056b6:	48 c1 e8 20          	shr    $0x20,%rax
  4056ba:	48 89 44 24 18       	mov    %rax,0x18(%rsp)
	rdr = game->rdr;
  4056bf:	4c 8b 6f 30          	mov    0x30(%rdi),%r13
  4056c3:	49 bf 00 00 00 00 ff 	movabs $0xffffffff00000000,%r15
  4056ca:	ff ff ff 
	draw_left(game, pos, size, imgs);
  4056cd:	49 21 f7             	and    %rsi,%r15
  4056d0:	48 89 7c 24 20       	mov    %rdi,0x20(%rsp)
  4056d5:	e8 f6 04 00 00       	call   405bd0 <draw_left>
	draw_horizontal_inter_tiles(rdr, imgs->top,
  4056da:	48 8b 73 08          	mov    0x8(%rbx),%rsi
  4056de:	48 89 6c 24 28       	mov    %rbp,0x28(%rsp)
		(t_vec2i){pos.x + SCALED_SIZE, pos.y},
  4056e3:	44 8d 65 40          	lea    0x40(%rbp),%r12d
  4056e7:	4c 89 74 24 30       	mov    %r14,0x30(%rsp)
		(t_draw_inter){size.x - 2, imgs->mid_index});
  4056ec:	41 83 c6 fe          	add    $0xfffffffe,%r14d
	draw_horizontal_inter_tiles(rdr, imgs->top,
  4056f0:	4d 09 e7             	or     %r12,%r15
  4056f3:	8b 4b 4c             	mov    0x4c(%rbx),%ecx
  4056f6:	48 c1 e1 20          	shl    $0x20,%rcx
  4056fa:	4c 09 f1             	or     %r14,%rcx
  4056fd:	4c 89 ef             	mov    %r13,%rdi
  405700:	4c 89 fa             	mov    %r15,%rdx
  405703:	e8 38 04 00 00       	call   405b40 <draw_horizontal_inter_tiles>
  405708:	48 8b 4c 24 18       	mov    0x18(%rsp),%rcx
	while (i < size.y - 1)
  40570d:	8d 41 ff             	lea    -0x1(%rcx),%eax
  405710:	48 89 44 24 08       	mov    %rax,0x8(%rsp)
  405715:	83 f9 03             	cmp    $0x3,%ecx
  405718:	7c 55                	jl     40576f <_draw_banner+0xdf>
  40571a:	48 b8 00 00 00 00 40 	movabs $0x4000000000,%rax
  405721:	00 00 00 
  405724:	44 8b 7c 24 08       	mov    0x8(%rsp),%r15d
  405729:	48 8b 6c 24 10       	mov    0x10(%rsp),%rbp
  40572e:	48 c1 e5 20          	shl    $0x20,%rbp
  405732:	48 01 c5             	add    %rax,%rbp
  405735:	49 83 c7 ff          	add    $0xffffffffffffffff,%r15
  405739:	0f 1f 80 00 00 00 00 	nopl   0x0(%rax)
		draw_horizontal_inter_tiles(rdr, imgs->mid,
  405740:	48 8b 73 20          	mov    0x20(%rbx),%rsi
  405744:	48 89 ea             	mov    %rbp,%rdx
  405747:	4c 09 e2             	or     %r12,%rdx
  40574a:	8b 4b 4c             	mov    0x4c(%rbx),%ecx
  40574d:	48 c1 e1 20          	shl    $0x20,%rcx
  405751:	4c 09 f1             	or     %r14,%rcx
  405754:	4c 89 ef             	mov    %r13,%rdi
  405757:	e8 e4 03 00 00       	call   405b40 <draw_horizontal_inter_tiles>
	while (i < size.y - 1)
  40575c:	48 b8 00 00 00 00 40 	movabs $0x4000000000,%rax
  405763:	00 00 00 
  405766:	48 01 c5             	add    %rax,%rbp
  405769:	49 83 c7 ff          	add    $0xffffffffffffffff,%r15
  40576d:	75 d1                	jne    405740 <_draw_banner+0xb0>
	draw_horizontal_inter_tiles(rdr, imgs->bot,
  40576f:	48 8b 73 38          	mov    0x38(%rbx),%rsi
  405773:	48 8b 54 24 08       	mov    0x8(%rsp),%rdx
		(t_vec2i){pos.x + SCALED_SIZE, pos.y + (size.y - 1) * SCALED_SIZE},
  405778:	c1 e2 06             	shl    $0x6,%edx
  40577b:	03 54 24 10          	add    0x10(%rsp),%edx
	draw_horizontal_inter_tiles(rdr, imgs->bot,
  40577f:	48 c1 e2 20          	shl    $0x20,%rdx
  405783:	4c 09 e2             	or     %r12,%rdx
  405786:	8b 4b 4c             	mov    0x4c(%rbx),%ecx
  405789:	48 c1 e1 20          	shl    $0x20,%rcx
  40578d:	4c 09 f1             	or     %r14,%rcx
  405790:	4c 89 ef             	mov    %r13,%rdi
  405793:	e8 a8 03 00 00       	call   405b40 <draw_horizontal_inter_tiles>
  405798:	48 8b 7c 24 20       	mov    0x20(%rsp),%rdi
  40579d:	48 8b 74 24 28       	mov    0x28(%rsp),%rsi
  4057a2:	48 8b 54 24 30       	mov    0x30(%rsp),%rdx
	draw_right(game, pos, size, imgs);
  4057a7:	48 89 d9             	mov    %rbx,%rcx
  4057aa:	48 83 c4 38          	add    $0x38,%rsp
  4057ae:	5b                   	pop    %rbx
  4057af:	41 5c                	pop    %r12
  4057b1:	41 5d                	pop    %r13
  4057b3:	41 5e                	pop    %r14
  4057b5:	41 5f                	pop    %r15
  4057b7:	5d                   	pop    %rbp
  4057b8:	e9 53 05 00 00       	jmp    405d10 <draw_right>
  4057bd:	0f 1f 00             	nopl   (%rax)

00000000004057c0 <draw_banner_v>:

void	draw_banner_v(t_game *g, t_vec2i pos, t_vec2i size)
{
  4057c0:	41 57                	push   %r15
  4057c2:	41 56                	push   %r14
  4057c4:	53                   	push   %rbx
  4057c5:	48 83 ec 60          	sub    $0x60,%rsp
  4057c9:	49 89 d6             	mov    %rdx,%r14
  4057cc:	49 89 f7             	mov    %rsi,%r15
  4057cf:	48 89 fb             	mov    %rdi,%rbx
	const struct s_images	imgs = {sp(g)[SP_BNRV_TL], sp(g)[SP_BNRV_T],
  4057d2:	e8 09 ee ff ff       	call   4045e0 <sp>
  4057d7:	48 8b 80 80 02 00 00 	mov    0x280(%rax),%rax
  4057de:	48 89 44 24 08       	mov    %rax,0x8(%rsp)
  4057e3:	48 89 df             	mov    %rbx,%rdi
  4057e6:	e8 f5 ed ff ff       	call   4045e0 <sp>
  4057eb:	48 8b 80 88 02 00 00 	mov    0x288(%rax),%rax
  4057f2:	48 89 44 24 10       	mov    %rax,0x10(%rsp)
		sp(g)[SP_BNRV_TR], sp(g)[SP_BNRV_L], sp(g)[SP_BNRV_M], sp(g)[SP_BNRV_R],
  4057f7:	48 89 df             	mov    %rbx,%rdi
  4057fa:	e8 e1 ed ff ff       	call   4045e0 <sp>
  4057ff:	48 8b 80 90 02 00 00 	mov    0x290(%rax),%rax
	const struct s_images	imgs = {sp(g)[SP_BNRV_TL], sp(g)[SP_BNRV_T],
  405806:	48 89 44 24 18       	mov    %rax,0x18(%rsp)
		sp(g)[SP_BNRV_TR], sp(g)[SP_BNRV_L], sp(g)[SP_BNRV_M], sp(g)[SP_BNRV_R],
  40580b:	48 89 df             	mov    %rbx,%rdi
  40580e:	e8 cd ed ff ff       	call   4045e0 <sp>
  405813:	48 8b 80 98 02 00 00 	mov    0x298(%rax),%rax
	const struct s_images	imgs = {sp(g)[SP_BNRV_TL], sp(g)[SP_BNRV_T],
  40581a:	48 89 44 24 20       	mov    %rax,0x20(%rsp)
		sp(g)[SP_BNRV_TR], sp(g)[SP_BNRV_L], sp(g)[SP_BNRV_M], sp(g)[SP_BNRV_R],
  40581f:	48 89 df             	mov    %rbx,%rdi
  405822:	e8 b9 ed ff ff       	call   4045e0 <sp>
  405827:	48 8b 80 a0 02 00 00 	mov    0x2a0(%rax),%rax
	const struct s_images	imgs = {sp(g)[SP_BNRV_TL], sp(g)[SP_BNRV_T],
  40582e:	48 89 44 24 28       	mov    %rax,0x28(%rsp)
		sp(g)[SP_BNRV_TR], sp(g)[SP_BNRV_L], sp(g)[SP_BNRV_M], sp(g)[SP_BNRV_R],
  405833:	48 89 df             	mov    %rbx,%rdi
  405836:	e8 a5 ed ff ff       	call   4045e0 <sp>
  40583b:	48 8b 80 a8 02 00 00 	mov    0x2a8(%rax),%rax
	const struct s_images	imgs = {sp(g)[SP_BNRV_TL], sp(g)[SP_BNRV_T],
  405842:	48 89 44 24 30       	mov    %rax,0x30(%rsp)
		sp(g)[SP_BNRV_BL], sp(g)[SP_BNRV_B], sp(g)[SP_BNRV_BR],
  405847:	48 89 df             	mov    %rbx,%rdi
  40584a:	e8 91 ed ff ff       	call   4045e0 <sp>
  40584f:	48 8b 80 b0 02 00 00 	mov    0x2b0(%rax),%rax
	const struct s_images	imgs = {sp(g)[SP_BNRV_TL], sp(g)[SP_BNRV_T],
  405856:	48 89 44 24 38       	mov    %rax,0x38(%rsp)
		sp(g)[SP_BNRV_BL], sp(g)[SP_BNRV_B], sp(g)[SP_BNRV_BR],
  40585b:	48 89 df             	mov    %rbx,%rdi
  40585e:	e8 7d ed ff ff       	call   4045e0 <sp>
  405863:	48 8b 80 b8 02 00 00 	mov    0x2b8(%rax),%rax
	const struct s_images	imgs = {sp(g)[SP_BNRV_TL], sp(g)[SP_BNRV_T],
  40586a:	48 89 44 24 40       	mov    %rax,0x40(%rsp)
		sp(g)[SP_BNRV_BL], sp(g)[SP_BNRV_B], sp(g)[SP_BNRV_BR],
  40586f:	48 89 df             	mov    %rbx,%rdi
  405872:	e8 69 ed ff ff       	call   4045e0 <sp>
  405877:	48 8b 80 c0 02 00 00 	mov    0x2c0(%rax),%rax
	const struct s_images	imgs = {sp(g)[SP_BNRV_TL], sp(g)[SP_BNRV_T],
  40587e:	48 89 44 24 48       	mov    %rax,0x48(%rsp)
  405883:	48 b8 01 00 00 00 01 	movabs $0x100000001,%rax
  40588a:	00 00 00 
  40588d:	48 89 44 24 50       	mov    %rax,0x50(%rsp)
  405892:	c7 44 24 58 01 00 00 	movl   $0x1,0x58(%rsp)
  405899:	00 
  40589a:	48 8d 4c 24 08       	lea    0x8(%rsp),%rcx
		1, 1, 1};

	_draw_banner(g, pos, size, &imgs);
  40589f:	48 89 df             	mov    %rbx,%rdi
  4058a2:	4c 89 fe             	mov    %r15,%rsi
  4058a5:	4c 89 f2             	mov    %r14,%rdx
  4058a8:	e8 e3 fd ff ff       	call   405690 <_draw_banner>
}
  4058ad:	48 83 c4 60          	add    $0x60,%rsp
  4058b1:	5b                   	pop    %rbx
  4058b2:	41 5e                	pop    %r14
  4058b4:	41 5f                	pop    %r15
  4058b6:	c3                   	ret    
  4058b7:	66 0f 1f 84 00 00 00 	nopw   0x0(%rax,%rax,1)
  4058be:	00 00 

00000000004058c0 <draw_banner_cl>:

void	draw_banner_cl(t_game *g, t_vec2i pos, t_vec2i size)
{
  4058c0:	41 57                	push   %r15
  4058c2:	41 56                	push   %r14
  4058c4:	53                   	push   %rbx
  4058c5:	48 83 ec 60          	sub    $0x60,%rsp
  4058c9:	49 89 d6             	mov    %rdx,%r14
  4058cc:	49 89 f7             	mov    %rsi,%r15
  4058cf:	48 89 fb             	mov    %rdi,%rbx
	const struct s_images	imgs = {sp(g)[SP_BNRCL_TL], sp(g)[SP_BNRCL_T],
  4058d2:	e8 09 ed ff ff       	call   4045e0 <sp>
  4058d7:	48 8b 80 c8 02 00 00 	mov    0x2c8(%rax),%rax
  4058de:	48 89 44 24 08       	mov    %rax,0x8(%rsp)
  4058e3:	48 89 df             	mov    %rbx,%rdi
  4058e6:	e8 f5 ec ff ff       	call   4045e0 <sp>
  4058eb:	48 8b 80 d0 02 00 00 	mov    0x2d0(%rax),%rax
  4058f2:	48 89 44 24 10       	mov    %rax,0x10(%rsp)
		sp(g)[SP_BNRCL_TR], sp(g)[SP_BNRCL_L], sp(g)[SP_BNRCL_M],
  4058f7:	48 89 df             	mov    %rbx,%rdi
  4058fa:	e8 e1 ec ff ff       	call   4045e0 <sp>
  4058ff:	48 8b 80 d8 02 00 00 	mov    0x2d8(%rax),%rax
	const struct s_images	imgs = {sp(g)[SP_BNRCL_TL], sp(g)[SP_BNRCL_T],
  405906:	48 89 44 24 18       	mov    %rax,0x18(%rsp)
		sp(g)[SP_BNRCL_TR], sp(g)[SP_BNRCL_L], sp(g)[SP_BNRCL_M],
  40590b:	48 89 df             	mov    %rbx,%rdi
  40590e:	e8 cd ec ff ff       	call   4045e0 <sp>
  405913:	48 8b 80 e0 02 00 00 	mov    0x2e0(%rax),%rax
	const struct s_images	imgs = {sp(g)[SP_BNRCL_TL], sp(g)[SP_BNRCL_T],
  40591a:	48 89 44 24 20       	mov    %rax,0x20(%rsp)
		sp(g)[SP_BNRCL_TR], sp(g)[SP_BNRCL_L], sp(g)[SP_BNRCL_M],
  40591f:	48 89 df             	mov    %rbx,%rdi
  405922:	e8 b9 ec ff ff       	call   4045e0 <sp>
  405927:	48 8b 80 e8 02 00 00 	mov    0x2e8(%rax),%rax
	const struct s_images	imgs = {sp(g)[SP_BNRCL_TL], sp(g)[SP_BNRCL_T],
  40592e:	48 89 44 24 28       	mov    %rax,0x28(%rsp)
		sp(g)[SP_BNRCL_R],
  405933:	48 89 df             	mov    %rbx,%rdi
  405936:	e8 a5 ec ff ff       	call   4045e0 <sp>
  40593b:	48 8b 80 f0 02 00 00 	mov    0x2f0(%rax),%rax
	const struct s_images	imgs = {sp(g)[SP_BNRCL_TL], sp(g)[SP_BNRCL_T],
  405942:	48 89 44 24 30       	mov    %rax,0x30(%rsp)
		sp(g)[SP_BNRCL_BL], sp(g)[SP_BNRCL_B], sp(g)[SP_BNRCL_BR],
  405947:	48 89 df             	mov    %rbx,%rdi
  40594a:	e8 91 ec ff ff       	call   4045e0 <sp>
  40594f:	48 8b 80 f8 02 00 00 	mov    0x2f8(%rax),%rax
	const struct s_images	imgs = {sp(g)[SP_BNRCL_TL], sp(g)[SP_BNRCL_T],
  405956:	48 89 44 24 38       	mov    %rax,0x38(%rsp)
		sp(g)[SP_BNRCL_BL], sp(g)[SP_BNRCL_B], sp(g)[SP_BNRCL_BR],
  40595b:	48 89 df             	mov    %rbx,%rdi
  40595e:	e8 7d ec ff ff       	call   4045e0 <sp>
  405963:	48 8b 80 00 03 00 00 	mov    0x300(%rax),%rax
	const struct s_images	imgs = {sp(g)[SP_BNRCL_TL], sp(g)[SP_BNRCL_T],
  40596a:	48 89 44 24 40       	mov    %rax,0x40(%rsp)
		sp(g)[SP_BNRCL_BL], sp(g)[SP_BNRCL_B], sp(g)[SP_BNRCL_BR],
  40596f:	48 89 df             	mov    %rbx,%rdi
  405972:	e8 69 ec ff ff       	call   4045e0 <sp>
  405977:	48 8b 80 08 03 00 00 	mov    0x308(%rax),%rax
	const struct s_images	imgs = {sp(g)[SP_BNRCL_TL], sp(g)[SP_BNRCL_T],
  40597e:	48 89 44 24 48       	mov    %rax,0x48(%rsp)
  405983:	48 b8 01 00 00 00 01 	movabs $0x100000001,%rax
  40598a:	00 00 00 
  40598d:	48 89 44 24 50       	mov    %rax,0x50(%rsp)
  405992:	c7 44 24 58 00 00 00 	movl   $0x0,0x58(%rsp)
  405999:	00 
  40599a:	48 8d 4c 24 08       	lea    0x8(%rsp),%rcx
		1, 1, 0};

	_draw_banner(g, pos, size, &imgs);
  40599f:	48 89 df             	mov    %rbx,%rdi
  4059a2:	4c 89 fe             	mov    %r15,%rsi
  4059a5:	4c 89 f2             	mov    %r14,%rdx
  4059a8:	e8 e3 fc ff ff       	call   405690 <_draw_banner>
}
  4059ad:	48 83 c4 60          	add    $0x60,%rsp
  4059b1:	5b                   	pop    %rbx
  4059b2:	41 5e                	pop    %r14
  4059b4:	41 5f                	pop    %r15
  4059b6:	c3                   	ret    
  4059b7:	66 0f 1f 84 00 00 00 	nopw   0x0(%rax,%rax,1)
  4059be:	00 00 

00000000004059c0 <draw_banner_cr>:

void	draw_banner_cr(t_game *g, t_vec2i pos, t_vec2i size)
{
  4059c0:	41 57                	push   %r15
  4059c2:	41 56                	push   %r14
  4059c4:	53                   	push   %rbx
  4059c5:	48 83 ec 60          	sub    $0x60,%rsp
  4059c9:	49 89 d6             	mov    %rdx,%r14
  4059cc:	49 89 f7             	mov    %rsi,%r15
  4059cf:	48 89 fb             	mov    %rdi,%rbx
	const struct s_images	imgs = {sp(g)[SP_BNRCR_TL], sp(g)[SP_BNRCR_T],
  4059d2:	e8 09 ec ff ff       	call   4045e0 <sp>
  4059d7:	48 8b 80 10 03 00 00 	mov    0x310(%rax),%rax
  4059de:	48 89 44 24 08       	mov    %rax,0x8(%rsp)
  4059e3:	48 89 df             	mov    %rbx,%rdi
  4059e6:	e8 f5 eb ff ff       	call   4045e0 <sp>
  4059eb:	48 8b 80 18 03 00 00 	mov    0x318(%rax),%rax
  4059f2:	48 89 44 24 10       	mov    %rax,0x10(%rsp)
		sp(g)[SP_BNRCR_TR], sp(g)[SP_BNRCR_L], sp(g)[SP_BNRCR_M],
  4059f7:	48 89 df             	mov    %rbx,%rdi
  4059fa:	e8 e1 eb ff ff       	call   4045e0 <sp>
  4059ff:	48 8b 80 20 03 00 00 	mov    0x320(%rax),%rax
	const struct s_images	imgs = {sp(g)[SP_BNRCR_TL], sp(g)[SP_BNRCR_T],
  405a06:	48 89 44 24 18       	mov    %rax,0x18(%rsp)
		sp(g)[SP_BNRCR_TR], sp(g)[SP_BNRCR_L], sp(g)[SP_BNRCR_M],
  405a0b:	48 89 df             	mov    %rbx,%rdi
  405a0e:	e8 cd eb ff ff       	call   4045e0 <sp>
  405a13:	48 8b 80 28 03 00 00 	mov    0x328(%rax),%rax
	const struct s_images	imgs = {sp(g)[SP_BNRCR_TL], sp(g)[SP_BNRCR_T],
  405a1a:	48 89 44 24 20       	mov    %rax,0x20(%rsp)
		sp(g)[SP_BNRCR_TR], sp(g)[SP_BNRCR_L], sp(g)[SP_BNRCR_M],
  405a1f:	48 89 df             	mov    %rbx,%rdi
  405a22:	e8 b9 eb ff ff       	call   4045e0 <sp>
  405a27:	48 8b 80 30 03 00 00 	mov    0x330(%rax),%rax
	const struct s_images	imgs = {sp(g)[SP_BNRCR_TL], sp(g)[SP_BNRCR_T],
  405a2e:	48 89 44 24 28       	mov    %rax,0x28(%rsp)
		sp(g)[SP_BNRCR_R],
  405a33:	48 89 df             	mov    %rbx,%rdi
  405a36:	e8 a5 eb ff ff       	call   4045e0 <sp>
  405a3b:	48 8b 80 38 03 00 00 	mov    0x338(%rax),%rax
	const struct s_images	imgs = {sp(g)[SP_BNRCR_TL], sp(g)[SP_BNRCR_T],
  405a42:	48 89 44 24 30       	mov    %rax,0x30(%rsp)
		sp(g)[SP_BNRCR_BL], sp(g)[SP_BNRCR_B], sp(g)[SP_BNRCR_BR],
  405a47:	48 89 df             	mov    %rbx,%rdi
  405a4a:	e8 91 eb ff ff       	call   4045e0 <sp>
  405a4f:	48 8b 80 40 03 00 00 	mov    0x340(%rax),%rax
	const struct s_images	imgs = {sp(g)[SP_BNRCR_TL], sp(g)[SP_BNRCR_T],
  405a56:	48 89 44 24 38       	mov    %rax,0x38(%rsp)
		sp(g)[SP_BNRCR_BL], sp(g)[SP_BNRCR_B], sp(g)[SP_BNRCR_BR],
  405a5b:	48 89 df             	mov    %rbx,%rdi
  405a5e:	e8 7d eb ff ff       	call   4045e0 <sp>
  405a63:	48 8b 80 48 03 00 00 	mov    0x348(%rax),%rax
	const struct s_images	imgs = {sp(g)[SP_BNRCR_TL], sp(g)[SP_BNRCR_T],
  405a6a:	48 89 44 24 40       	mov    %rax,0x40(%rsp)
		sp(g)[SP_BNRCR_BL], sp(g)[SP_BNRCR_B], sp(g)[SP_BNRCR_BR],
  405a6f:	48 89 df             	mov    %rbx,%rdi
  405a72:	e8 69 eb ff ff       	call   4045e0 <sp>
  405a77:	48 8b 80 50 03 00 00 	mov    0x350(%rax),%rax
	const struct s_images	imgs = {sp(g)[SP_BNRCR_TL], sp(g)[SP_BNRCR_T],
  405a7e:	48 89 44 24 48       	mov    %rax,0x48(%rsp)
  405a83:	48 b8 00 00 00 00 01 	movabs $0x100000000,%rax
  405a8a:	00 00 00 
  405a8d:	48 89 44 24 50       	mov    %rax,0x50(%rsp)
  405a92:	c7 44 24 58 01 00 00 	movl   $0x1,0x58(%rsp)
  405a99:	00 
  405a9a:	48 8d 4c 24 08       	lea    0x8(%rsp),%rcx
		0, 1, 1};

	_draw_banner(g, pos, size, &imgs);
  405a9f:	48 89 df             	mov    %rbx,%rdi
  405aa2:	4c 89 fe             	mov    %r15,%rsi
  405aa5:	4c 89 f2             	mov    %r14,%rdx
  405aa8:	e8 e3 fb ff ff       	call   405690 <_draw_banner>
}
  405aad:	48 83 c4 60          	add    $0x60,%rsp
  405ab1:	5b                   	pop    %rbx
  405ab2:	41 5e                	pop    %r14
  405ab4:	41 5f                	pop    %r15
  405ab6:	c3                   	ret    
  405ab7:	66 0f 1f 84 00 00 00 	nopw   0x0(%rax,%rax,1)
  405abe:	00 00 

0000000000405ac0 <draw_vertical_inter_tiles>:
void	draw_vertical_inter_tiles(
	t_renderer *rdr,
	t_img *tile,
	t_vec2i pos,
	t_draw_inter inter)
{
  405ac0:	41 57                	push   %r15
  405ac2:	41 56                	push   %r14
  405ac4:	41 55                	push   %r13
  405ac6:	41 54                	push   %r12
  405ac8:	53                   	push   %rbx
  405ac9:	48 83 ec 10          	sub    $0x10,%rsp
  405acd:	49 89 cd             	mov    %rcx,%r13
	int	i;

	i = 0;
	while (i < inter.size)
  405ad0:	45 85 ed             	test   %r13d,%r13d
  405ad3:	7e 56                	jle    405b2b <draw_vertical_inter_tiles+0x6b>
  405ad5:	49 89 f6             	mov    %rsi,%r14
  405ad8:	49 89 ff             	mov    %rdi,%r15
  405adb:	48 89 d3             	mov    %rdx,%rbx
  405ade:	f3 0f 2a c2          	cvtsi2ss %edx,%xmm0
  405ae2:	0f 29 04 24          	movaps %xmm0,(%rsp)
  405ae6:	48 c1 eb 20          	shr    $0x20,%rbx
  405aea:	4c 89 e8             	mov    %r13,%rax
  405aed:	48 c1 e8 20          	shr    $0x20,%rax
  405af1:	49 bc 00 00 00 00 05 	movabs $0x500000000,%r12
  405af8:	00 00 00 
  405afb:	49 09 c4             	or     %rax,%r12
  405afe:	66 90                	xchg   %ax,%ax
	{
		rdr_add_sprite(rdr, tile, (t_vec2){pos.x, pos.y + i * SCALED_SIZE},
  405b00:	0f 57 c0             	xorps  %xmm0,%xmm0
  405b03:	f3 0f 2a c3          	cvtsi2ss %ebx,%xmm0
  405b07:	0f 28 0c 24          	movaps (%rsp),%xmm1
  405b0b:	0f 16 c1             	movlhps %xmm1,%xmm0
  405b0e:	0f c6 c1 e2          	shufps $0xe2,%xmm1,%xmm0
  405b12:	4c 89 ff             	mov    %r15,%rdi
  405b15:	4c 89 f6             	mov    %r14,%rsi
  405b18:	4c 89 e2             	mov    %r12,%rdx
  405b1b:	31 c9                	xor    %ecx,%ecx
  405b1d:	e8 fe 4d 00 00       	call   40a920 <rdr_add_sprite>
	while (i < inter.size)
  405b22:	83 c3 40             	add    $0x40,%ebx
  405b25:	41 83 c5 ff          	add    $0xffffffff,%r13d
  405b29:	75 d5                	jne    405b00 <draw_vertical_inter_tiles+0x40>
			(t_add_sprite){inter.z_index, 5, false, false});
		i++;
	}
}
  405b2b:	48 83 c4 10          	add    $0x10,%rsp
  405b2f:	5b                   	pop    %rbx
  405b30:	41 5c                	pop    %r12
  405b32:	41 5d                	pop    %r13
  405b34:	41 5e                	pop    %r14
  405b36:	41 5f                	pop    %r15
  405b38:	c3                   	ret    
  405b39:	0f 1f 80 00 00 00 00 	nopl   0x0(%rax)

0000000000405b40 <draw_horizontal_inter_tiles>:
void	draw_horizontal_inter_tiles(
	t_renderer *rdr,
	t_img *tile,
	t_vec2i pos,
	t_draw_inter inter)
{
  405b40:	41 57                	push   %r15
  405b42:	41 56                	push   %r14
  405b44:	41 55                	push   %r13
  405b46:	41 54                	push   %r12
  405b48:	53                   	push   %rbx
  405b49:	48 83 ec 10          	sub    $0x10,%rsp
  405b4d:	49 89 ce             	mov    %rcx,%r14
	int	i;

	i = 0;
	while (i < inter.size)
  405b50:	45 85 f6             	test   %r14d,%r14d
  405b53:	7e 5f                	jle    405bb4 <draw_horizontal_inter_tiles+0x74>
  405b55:	48 89 d3             	mov    %rdx,%rbx
  405b58:	49 89 f7             	mov    %rsi,%r15
  405b5b:	49 89 fc             	mov    %rdi,%r12
  405b5e:	48 89 d0             	mov    %rdx,%rax
  405b61:	48 c1 e8 20          	shr    $0x20,%rax
  405b65:	f3 0f 2a c0          	cvtsi2ss %eax,%xmm0
  405b69:	0f 29 04 24          	movaps %xmm0,(%rsp)
  405b6d:	4c 89 f0             	mov    %r14,%rax
  405b70:	48 c1 e8 20          	shr    $0x20,%rax
  405b74:	49 bd 00 00 00 00 05 	movabs $0x500000000,%r13
  405b7b:	00 00 00 
  405b7e:	49 09 c5             	or     %rax,%r13
  405b81:	66 2e 0f 1f 84 00 00 	cs nopw 0x0(%rax,%rax,1)
  405b88:	00 00 00 
  405b8b:	0f 1f 44 00 00       	nopl   0x0(%rax,%rax,1)
	{
		rdr_add_sprite(rdr, tile, (t_vec2){pos.x + i * SCALED_SIZE, pos.y},
  405b90:	0f 57 c0             	xorps  %xmm0,%xmm0
  405b93:	f3 0f 2a c3          	cvtsi2ss %ebx,%xmm0
  405b97:	0f 14 04 24          	unpcklps (%rsp),%xmm0
  405b9b:	4c 89 e7             	mov    %r12,%rdi
  405b9e:	4c 89 fe             	mov    %r15,%rsi
  405ba1:	4c 89 ea             	mov    %r13,%rdx
  405ba4:	31 c9                	xor    %ecx,%ecx
  405ba6:	e8 75 4d 00 00       	call   40a920 <rdr_add_sprite>
	while (i < inter.size)
  405bab:	83 c3 40             	add    $0x40,%ebx
  405bae:	41 83 c6 ff          	add    $0xffffffff,%r14d
  405bb2:	75 dc                	jne    405b90 <draw_horizontal_inter_tiles+0x50>
			(t_add_sprite){inter.z_index, 5, false, false});
		i++;
	}
}
  405bb4:	48 83 c4 10          	add    $0x10,%rsp
  405bb8:	5b                   	pop    %rbx
  405bb9:	41 5c                	pop    %r12
  405bbb:	41 5d                	pop    %r13
  405bbd:	41 5e                	pop    %r14
  405bbf:	41 5f                	pop    %r15
  405bc1:	c3                   	ret    
  405bc2:	66 2e 0f 1f 84 00 00 	cs nopw 0x0(%rax,%rax,1)
  405bc9:	00 00 00 
  405bcc:	0f 1f 40 00          	nopl   0x0(%rax)

0000000000405bd0 <draw_left>:
void	draw_left(
	t_game *game,
	t_vec2i pos,
	t_vec2i size,
	const struct s_images *imgs)
{
